                                                  //
                                                  // segment_2.1 
                                                  // Loadable segment  [0x0 - 0x987]
                                                  // ram:00100000-ram:00100317
                                                  //
                       assume DF = 0x0  (Default)
            00100000  7f 45 4c 46          Elf64_Ehdr
                              02 01 01 00 
                              00 00 00 0
                 00100000  7f                         db              7Fh                                     e_ident_magic
                 00100001  45 4c 46              ds              "ELF"                                 e_ident_magic
                 00100004  02                        db              2h                                       e_ident_class
                 00100005  01                        db              1h                                       e_ident_data
                 00100006  01                        db              1h                                       e_ident_version
                 00100007  00                        db              0h                                       e_ident_osabi
                 00100008  00                        db              0h                                       e_ident_abive
                 00100009  00 00 00 00 00    db[7]                                                    e_ident_pad
                                   00 00
                 00100010  03 00                   dw             3h                                       e_type
                 00100012  3e 00                   dw             3Eh                                    e_machine
                 00100014  01 00 00 00         ddw           1h                                       e_version
                 00100018  00 12 00 00 00    dq              _start                                  e_entry
                                   00 00 00
                 00100020  40 00 00 00 00    dq              Elf64_Phdr_ARRAY_0010   e_phoff
                                   00 00 00
                 00100028  20 3d 00 00 00    dq              Elf64_Shdr_ARRAY__elfS    e_shoff
                                   00 00 00
                 00100030  00 00 00 00         ddw           0h                                       e_flags
                 00100034  40 00                   dw             40h                                     e_ehsize
                 00100036  38 00                   dw             38h                                     e_phentsize
                 00100038  0d 00                   dw             Dh                                      e_phnum
                  0010003a  40 00                   dw             40h                                     e_shentsize
                  0010003c  1f 00                    dw             1Fh                                     e_shnum
                  0010003e  1e 00                   dw             1Eh                                    e_shstrndx
                                                  Elf64_Phdr_ARRAY_00100040                                     XREF[2]:        00100020(*), 00100050(*)  
            00100040  06 00 00 00         Elf64_Ph                                                                                           PT_PHDR - Program header table
                              04 00 00 00 
                              40 00 00 0
                                                  //
                                                  // .interp 
                                                  // SHT_PROGBITS  [0x318 - 0x333]
                                                  // ram:00100318-ram:00100333
                                                  //
                                                  s_/lib64/ld-linux-x86-64.so.2_00100318                       XREF[2]:        00100088(*), 
                                                                                                                                                             _elfSectionHeaders::00000050(*)  
            00100318  2f 6c 69 62          ds                 "/lib64/ld-linux-x86-64.so.2"                                         Initial Elf program interpreter
                              36 34 2f 6c 
                              64 2d 6c 6
                                                  //
                                                  // .note.gnu.property 
                                                  // SHT_NOTE  [0x338 - 0x357]
                                                  // ram:00100338-ram:00100357
                                                  //
                                                  NoteGnuProperty_4_00100338                                    XREF[3]:        001001d8(*), 00100248(*), 
                                                                                                                                                             _elfSectionHeaders::00000090(*)  
            00100338  04 00 00 00         NoteGnu                                                                                           Length of name field
                              10 00 00 00 
                              05 00 00 0
            00100348  02 00 00 c0         NoteGnu                                                                                           processor opt 0xc0000002=03 00 0
                              04 00 00 00 
                              03 00 00 00
            00100354  00                        ??                 00h
            00100355  00                        ??                 00h
            00100356  00                        ??                 00h
            00100357  00                        ??                 00h
                                                  //
                                                  // .note.gnu.build-id 
                                                  // SHT_NOTE  [0x358 - 0x37b]
                                                  // ram:00100358-ram:0010037b
                                                  //
                                                  GnuBuildId_00100358                                                 XREF[2]:        00100210(*), 
                                                                                                                                                             _elfSectionHeaders::000000d0(*)  
            00100358  04 00 00 00         GnuBuil                                                                                            Length of name field
                              14 00 00 00 
                              03 00 00 0
                                                  //
                                                  // .note.ABI-tag 
                                                  // SHT_NOTE  [0x37c - 0x39b]
                                                  // ram:0010037c-ram:0010039b
                                                  //
                                                  NoteAbiTag_0010037c                                                 XREF[1]:        _elfSectionHeaders::00000110(*)  
             0010037c  04 00 00 00         NoteAbi                                                                                            Length of name field
                              10 00 00 00 
                              01 00 00 0
                                                  //
                                                  // .gnu.hash 
                                                  // SHT_GNU_HASH  [0x3a0 - 0x3c3]
                                                  // ram:001003a0-ram:001003c3
                                                  //
                                                  __DT_GNU_HASH                                                         XREF[2]:        00103dd8(*), 
                                                                                                                                                             _elfSectionHeaders::00000150(*)  
             001003a0  02 00 00 00         ddw              2h                                                                                 GNU Hash Table - nbucket
             001003a4  13 00 00 00         ddw              13h                                                                               GNU Hash Table - symbase
             001003a8  01 00 00 00         ddw              1h                                                                                 GNU Hash Table - bloom_size
             001003ac  06 00 00 00         ddw              6h                                                                                 GNU Hash Table - bloom_shift
            001003b0  00 00 81 00         dq[1]                                                                                                 GNU Hash Table - bloom
                              00 00 00 00
            001003b8  13 00 00 00         ddw[2]                                                                                              GNU Hash Table - buckets
                              00 00 00 00
             001003c0  d1 65 ce 6d         ddw[1]                                                                                              GNU Hash Table - chain
                                                  //
                                                  // .dynsym 
                                                  // SHT_DYNSYM  [0x3c8 - 0x5a7]
                                                  // ram:001003c8-ram:001005a7
                                                  //
                                                  __DT_SYMTAB                                                              XREF[2]:        00103df8(*), 
                                                                                                                                                             _elfSectionHeaders::00000190(*)  
             001003c8  00 00 00 00         Elf64_Sy
                              00 00 00 00 
                              00 00 00 0
                                                  //
                                                  // .dynstr 
                                                  // SHT_STRTAB  [0x5a8 - 0x6df]
                                                  // ram:001005a8-ram:001006df
                                                  //
                                                  __DT_STRTAB                                                               XREF[2]:        00103de8(*), 
                                                                                                                                                             _elfSectionHeaders::000001d0(*)  
             001005a8  00                        ??                 00h
             001005a9  6c 69 62 63         utf8              u8"libcrypto.so.1.1"
                              72 79 70 74 
                              6f 2e 73 6f
             001005ba  5f 5f 67 6d           utf8              u8"__gmon_start__"
                              6f 6e 5f 73 
                              74 61 72 7
             001005c9  5f 49 54 4d          utf8              u8"_ITM_deregisterTMCloneTable"
                              5f 64 65 72 
                              65 67 69 7
             001005e5  5f 49 54 4d          utf8              u8"_ITM_registerTMCloneTable"
                              5f 72 65 67 
                              69 73 74 6
              001005ff  4d 44 35 5f          utf8              u8"MD5_Final"
                              46 69 6e 61 
                              6c 00
            00100609  4d 44 35 5f          utf8              u8"MD5_Init"
                              49 6e 69 74 
                              00
            00100612  4d 44 35 5f          utf8              u8"MD5_Update"
                              55 70 64 61 
                              74 65 00
            0010061d  6c 69 62 63         utf8              u8"libc.so.6"
                              2e 73 6f 2e 
                              36 00
            00100627  73 70 72 69         utf8              u8"sprintf"
                              6e 74 66 00
             0010062f  73 74 72 6e         utf8              u8"strncmp"
                              63 6d 70 00
            00100637  5f 5f 69 73           utf8              u8"__isoc99_scanf"
                              6f 63 39 39 
                              5f 73 63 6
            00100646  70 75 74 73         utf8              u8"puts"
                              00
            0010064b  5f 5f 73 74           utf8              u8"__stack_chk_fail"
                              61 63 6b 5f 
                              63 68 6b 5
             0010065c  73 65 74 78         utf8              u8"setxattr"
                              61 74 74 72 
                              00
            00100665  73 79 73 74         utf8              u8"system"
                              65 6d 00
             0010066c  72 65 61 64         utf8              u8"readlink"
                              6c 69 6e 6b 
                              00
            00100675  5f 5f 63 78           utf8              u8"__cxa_finalize"
                              61 5f 66 69 
                              6e 61 6c 6
            00100684  67 65 74 78         utf8              u8"getxattr"
                              61 74 74 72 
                              00
            0010068d  5f 5f 6c 69           utf8              u8"__libc_start_main"
                              62 63 5f 73 
                              74 61 72 7
             0010069f  73 6e 70 72         utf8              u8"snprintf"
                              69 6e 74 66 
                              00
             001006a8  4f 50 45 4e          utf8              u8"OPENSSL_1_1_0"
                              53 53 4c 5f 
                              31 5f 31 5f
            001006b6  47 4c 49 42         utf8              u8"GLIBC_2.7"
                              43 5f 32 2e 
                              37 00
             001006c0  47 4c 49 42         utf8              u8"GLIBC_2.4"
                              43 5f 32 2e 
                              34 00
             001006ca  47 4c 49 42         utf8              u8"GLIBC_2.3"
                              43 5f 32 2e 
                              33 00
            001006d4  47 4c 49 42         utf8              u8"GLIBC_2.2.5"
                              43 5f 32 2e 
                              32 2e 35 00
                                                  //
                                                  // .gnu.version 
                                                  // SHT_GNU_versym  [0x6e0 - 0x707]
                                                  // ram:001006e0-ram:00100707
                                                  //
                                                  __DT_VERSYM                                                              XREF[2]:        00103ee8(*), 
                                                                                                                                                             _elfSectionHeaders::00000210(*)  
             001006e0  00 00                   dw                0h                                                                                 0
             001006e2  02 00                   dw                2h                                                                                 printf
             001006e4  02 00                   dw                2h                                                                                 snprintf
             001006e6  00 00                   dw                0h                                                                                 __gmon_start__
             001006e8  02 00                   dw                2h                                                                                 puts
             001006ea  02 00                   dw                2h                                                                                 strncmp
             001006ec  02 00                   dw                2h                                                                                 __libc_start_main
             001006ee  02 00                   dw                2h                                                                                 system
             001006f0  00 00                   dw                0h                                                                                 _ITM_deregisterTMCloneTable
             001006f2  00 00                   dw                0h                                                                                 _ITM_registerTMCloneTable
             001006f4  03 00                   dw                3h                                                                                 MD5_Final
             001006f6  03 00                   dw                3h                                                                                 MD5_Update
             001006f8  02 00                   dw                2h                                                                                 sprintf
              001006fa  04 00                   dw                4h                                                                                 setxattr
              001006fc  02 00                   dw                2h                                                                                 readlink
              001006fe  05 00                   dw                5h                                                                                 __stack_chk_fail
            00100700  04 00                   dw                4h                                                                                 getxattr
            00100702  03 00                   dw                3h                                                                                 MD5_Init
            00100704  06 00                   dw                6h                                                                                 __isoc99_scanf
            00100706  02 00                   dw                2h                                                                                 __cxa_finalize
                                                  //
                                                  // .gnu.version_r 
                                                  // SHT_GNU_verneed  [0x708 - 0x777]
                                                  // ram:00100708-ram:00100777
                                                  //
                                                  __DT_VERNEED                                                           XREF[2]:        00103ec8(*), 
                                                                                                                                                             _elfSectionHeaders::00000250(*)  
            00100708  01                        ??                 01h
            00100709  00                        ??                 00h
             0010070a  01                        ??                 01h
            0010070b  00                        ??                 00h
             0010070c  01                        ??                 01h
            0010070d  00                        ??                 00h
             0010070e  00                        ??                 00h
             0010070f  00                        ??                 00h
            00100710  10                        ??                 10h
            00100711  00                        ??                 00h
            00100712  00                        ??                 00h
            00100713  00                        ??                 00h
            00100714  20                        ??                 20h     
            00100715  00                        ??                 00h
            00100716  00                        ??                 00h
            00100717  00                        ??                 00h
            00100718  10                        ??                 10h
            00100719  1f                         ??                 1Fh
             0010071a  6d                        ??                 6Dh    m
            0010071b  06                        ??                 06h
             0010071c  00                        ??                 00h
            0010071d  00                        ??                 00h
             0010071e  03                        ??                 03h
             0010071f  00                        ??                 00h
            00100720  00                        ??                 00h
            00100721  01                        ??                 01h
            00100722  00                        ??                 00h
            00100723  00                        ??                 00h
            00100724  00                        ??                 00h
            00100725  00                        ??                 00h
            00100726  00                        ??                 00h
            00100727  00                        ??                 00h
            00100728  01                        ??                 01h
            00100729  00                        ??                 00h
             0010072a  04                        ??                 04h
            0010072b  00                        ??                 00h
             0010072c  75                        ??                 75h    u
            0010072d  00                        ??                 00h
             0010072e  00                        ??                 00h                                                                               ?  ->  00100000
             0010072f  00                        ??                 00h
            00100730  10                        ??                 10h
            00100731  00                        ??                 00h
            00100732  00                        ??                 00h
            00100733  00                        ??                 00h
            00100734  00                        ??                 00h
            00100735  00                        ??                 00h
            00100736  00                        ??                 00h
            00100737  00                        ??                 00h
            00100738  17                        ??                 17h
            00100739  69                        ??                 69h    i
             0010073a  69                        ??                 69h    i
            0010073b  0d                        ??                 0Dh
             0010073c  00                        ??                 00h
            0010073d  00                        ??                 00h
             0010073e  06                        ??                 06h
             0010073f  00                        ??                 00h
            00100740  0e                        ??                 0Eh
            00100741  01                        ??                 01h
            00100742  00                        ??                 00h
            00100743  00                        ??                 00h
            00100744  10                        ??                 10h
            00100745  00                        ??                 00h
            00100746  00                        ??                 00h
            00100747  00                        ??                 00h
            00100748  14                        ??                 14h
            00100749  69                        ??                 69h    i
             0010074a  69                        ??                 69h    i
            0010074b  0d                        ??                 0Dh
             0010074c  00                        ??                 00h
            0010074d  00                        ??                 00h
             0010074e  05                        ??                 05h
             0010074f  00                        ??                 00h
            00100750  18                        ??                 18h
            00100751  01                        ??                 01h
            00100752  00                        ??                 00h
            00100753  00                        ??                 00h
            00100754  10                        ??                 10h
            00100755  00                        ??                 00h
            00100756  00                        ??                 00h
            00100757  00                        ??                 00h
            00100758  13                        ??                 13h
            00100759  69                        ??                 69h    i
             0010075a  69                        ??                 69h    i
            0010075b  0d                        ??                 0Dh
             0010075c  00                        ??                 00h
            0010075d  00                        ??                 00h
             0010075e  04                        ??                 04h
             0010075f  00                        ??                 00h
            00100760  22                        ??                 22h    "
            00100761  01                        ??                 01h
            00100762  00                        ??                 00h
            00100763  00                        ??                 00h
            00100764  10                        ??                 10h
            00100765  00                        ??                 00h
            00100766  00                        ??                 00h
            00100767  00                        ??                 00h
            00100768  75                        ??                 75h    u
            00100769  1a                        ??                 1Ah
             0010076a  69                        ??                 69h    i
            0010076b  09                        ??                 09h
             0010076c  00                        ??                 00h
            0010076d  00                        ??                 00h
             0010076e  02                        ??                 02h
             0010076f  00                        ??                 00h
            00100770  2c                        ??                 2Ch    ,
            00100771  01                        ??                 01h
            00100772  00                        ??                 00h
            00100773  00                        ??                 00h
            00100774  00                        ??                 00h
            00100775  00                        ??                 00h
            00100776  00                        ??                 00h
            00100777  00                        ??                 00h
                                                  //
                                                  // .rela.dyn 
                                                  // SHT_RELA  [0x778 - 0x837]
                                                  // ram:00100778-ram:00100837
                                                  //
                                                  __DT_RELA                                                                   XREF[2]:        00103e78(*), 
                                                                                                                                                             _elfSectionHeaders::00000290(*)  
            00100778  40 3d 00 00         Elf64_Re                                                                                           location to apply the relocation action
                              00 00 00 00 
                              08 00 00 0
                                                  //
                                                  // .rela.plt 
                                                  // SHT_RELA  [0x838 - 0x987]
                                                  // ram:00100838-ram:00100987
                                                  //
                                                  __DT_JMPREL                                                               XREF[2]:        00103e68(*), 
                                                                                                                                                             _elfSectionHeaders::000002d0(*)  
            00100838  68 3f 00 00          Elf64_Re                                                                                           location to apply the relocation action
                              00 00 00 00 
                              07 00 00 0
                                                  //
                                                  // .init 
                                                  // SHT_PROGBITS  [0x1000 - 0x101a]
                                                  // ram:00101000-ram:0010101a
                                                  //
                                                  *************************************************************************
                                                  *                              FUNCTION                              *
                                                  *************************************************************************
                                                  int __stdcall _init(EVP_PKEY_CTX * ctx)
                       int                            EAX:4                <RETURN>
                       EVP_PKEY_CTX *     RDI:8                 ctx
                                                  __DT_INIT                                                                    XREF[5]:        Entry Point(*), 001000f8(*), 
                                                  _init                                                                                                    __libc_csu_init:001016ac(c), 
                                                                                                                                                             00103d78(*), 
                                                                                                                                                             _elfSectionHeaders::00000310(*)  
            00101000  f3 0f 1e fa            ENDBR64
            00101004  48 83 ec 08         SUB             RSP,0x8
            00101008  48 8b 05 c9         MOV            RAX=><EXTERNAL>::__gmon_start__,qword ptr [->   = ??
                              2f 00 00                                                                                                                        = 00107010
             0010100f  48 85 c0              TEST            RAX,RAX
            00101012  74 02                   JZ                 LAB_00101016
            00101014  ff d0                     CALL            RAX=><EXTERNAL>::__gmon_start__                         undefined __gmon_start__()
                                                  LAB_00101016                                                             XREF[1]:        00101012(j)  
            00101016  48 83 c4 08         ADD             RSP,0x8
             0010101a  c3                        RET
                                                  //
                                                  // .plt 
                                                  // SHT_PROGBITS  [0x1020 - 0x110f]
                                                  // ram:00101020-ram:0010110f
                                                  //
                                                  *************************************************************************
                                                  *                              FUNCTION                              *
                                                  *************************************************************************
                                                  undefined FUN_00101020()
                       undefined                 <UNASSIGN     <RETURN>
                                                  FUN_00101020                                                            XREF[17]:      00101039(c), 00101049(c), 
                                                                                                                                                             00101059(c), 00101069(c), 
                                                                                                                                                             00101079(c), 00101089(c), 
                                                                                                                                                             00101099(c), 001010a9(c), 
                                                                                                                                                             001010b9(c), 001010c9(c), 
                                                                                                                                                             001010d9(c), 001010e9(c), 
                                                                                                                                                             001010f9(c), 00101109(c), 
                                                                                                                                                             00102158, 001021e0(*), 
                                                                                                                                                             _elfSectionHeaders::00000350(*)  
            00101020  ff 35 32 2f            PUSH           qword ptr [PTR_00103f58]                                           = 00000000
                              00 00
            00101026  f2 ff 25 33            JMP              qword ptr [PTR_00103f60]
                              2f 00 00
            0010102d  0f                         ??                 0Fh
             0010102e  1f                         ??                 1Fh
             0010102f  00                        ??                 00h
            00101030  f3 0f 1e fa            ENDBR64
            00101034  68 00 00 00         PUSH           0x0
                              00
            00101039  f2 e9 e1 ff ff         JMP              FUN_00101020                                                            undefined FUN_00101020()
                              ff
                                                  -- Flow Override: CALL_RETURN (CALL_TERMINATOR)
             0010103f  90                        NOP
            00101040  f3 0f 1e fa            ENDBR64
            00101044  68 01 00 00         PUSH           0x1
                              00
            00101049  f2 e9 d1 ff ff         JMP              FUN_00101020                                                            undefined FUN_00101020()
                              ff
                                                  -- Flow Override: CALL_RETURN (CALL_TERMINATOR)
             0010104f  90                        NOP
            00101050  f3 0f 1e fa            ENDBR64
            00101054  68 02 00 00         PUSH           0x2
                              00
            00101059  f2 e9 c1 ff ff         JMP              FUN_00101020                                                            undefined FUN_00101020()
                              ff
                                                  -- Flow Override: CALL_RETURN (CALL_TERMINATOR)
             0010105f  90                        NOP
            00101060  f3 0f 1e fa            ENDBR64
            00101064  68 03 00 00         PUSH           0x3
                              00
            00101069  f2 e9 b1 ff ff         JMP              FUN_00101020                                                            undefined FUN_00101020()
                              ff
                                                  -- Flow Override: CALL_RETURN (CALL_TERMINATOR)
             0010106f  90                        NOP
            00101070  f3 0f 1e fa            ENDBR64
            00101074  68 04 00 00         PUSH           0x4
                              00
            00101079  f2 e9 a1 ff ff         JMP              FUN_00101020                                                            undefined FUN_00101020()
                              ff
                                                  -- Flow Override: CALL_RETURN (CALL_TERMINATOR)
             0010107f  90                        NOP
            00101080  f3 0f 1e fa            ENDBR64
            00101084  68 05 00 00         PUSH           0x5
                              00
            00101089  f2 e9 91 ff ff         JMP              FUN_00101020                                                            undefined FUN_00101020()
                              ff
                                                  -- Flow Override: CALL_RETURN (CALL_TERMINATOR)
             0010108f  90                        NOP
            00101090  f3 0f 1e fa            ENDBR64
            00101094  68 06 00 00         PUSH           0x6
                              00
            00101099  f2 e9 81 ff ff         JMP              FUN_00101020                                                            undefined FUN_00101020()
                              ff
                                                  -- Flow Override: CALL_RETURN (CALL_TERMINATOR)
             0010109f  90                        NOP
             001010a0  f3 0f 1e fa            ENDBR64
             001010a4  68 07 00 00         PUSH           0x7
                              00
             001010a9  f2 e9 71 ff ff         JMP              FUN_00101020                                                            undefined FUN_00101020()
                              ff
                                                  -- Flow Override: CALL_RETURN (CALL_TERMINATOR)
              001010af  90                        NOP
            001010b0  f3 0f 1e fa            ENDBR64
            001010b4  68 08 00 00         PUSH           0x8
                              00
            001010b9  f2 e9 61 ff ff         JMP              FUN_00101020                                                            undefined FUN_00101020()
                              ff
                                                  -- Flow Override: CALL_RETURN (CALL_TERMINATOR)
             001010bf  90                        NOP
             001010c0  f3 0f 1e fa            ENDBR64
             001010c4  68 09 00 00         PUSH           0x9
                              00
             001010c9  f2 e9 51 ff ff         JMP              FUN_00101020                                                            undefined FUN_00101020()
                              ff
                                                  -- Flow Override: CALL_RETURN (CALL_TERMINATOR)
              001010cf  90                        NOP
            001010d0  f3 0f 1e fa            ENDBR64
            001010d4  68 0a 00 00         PUSH           0xa
                              00
            001010d9  f2 e9 41 ff ff         JMP              FUN_00101020                                                            undefined FUN_00101020()
                              ff
                                                  -- Flow Override: CALL_RETURN (CALL_TERMINATOR)
             001010df  90                        NOP
             001010e0  f3 0f 1e fa            ENDBR64
             001010e4  68 0b 00 00         PUSH           0xb
                              00
             001010e9  f2 e9 31 ff ff         JMP              FUN_00101020                                                            undefined FUN_00101020()
                              ff
                                                  -- Flow Override: CALL_RETURN (CALL_TERMINATOR)
              001010ef  90                        NOP
             001010f0  f3 0f 1e fa            ENDBR64
             001010f4  68 0c 00 00         PUSH           0xc
                              00
             001010f9  f2 e9 21 ff ff         JMP              FUN_00101020                                                            undefined FUN_00101020()
                              ff
                                                  -- Flow Override: CALL_RETURN (CALL_TERMINATOR)
              001010ff  90                        NOP
            00101100  f3 0f 1e fa            ENDBR64
            00101104  68 0d 00 00         PUSH           0xd
                              00
            00101109  f2 e9 11 ff ff         JMP              FUN_00101020                                                            undefined FUN_00101020()
                              ff
                                                  -- Flow Override: CALL_RETURN (CALL_TERMINATOR)
             0010110f  90                        NOP
                                                  //
                                                  // .plt.got 
                                                  // SHT_PROGBITS  [0x1110 - 0x111f]
                                                  // ram:00101110-ram:0010111f
                                                  //
                                                  *************************************************************************
                                                  *                              FUNCTION                              *
                                                  *************************************************************************
                                                  undefined FUN_00101110()
                       undefined                 <UNASSIGN     <RETURN>
                                                  FUN_00101110                                                            XREF[4]:        __do_global_dtors_aux:001012c2(c), 
                                                                                                                                                             00102160, 00102208(*), 
                                                                                                                                                             _elfSectionHeaders::00000390(*)  
            00101110  f3 0f 1e fa            ENDBR64
            00101114  f2 ff 25 dd            JMP              qword ptr [-><EXTERNAL>::__cxa_finalize]                 undefined __cxa_finalize()
                              2e 00 00
                                                  -- Flow Override: CALL_RETURN (COMPUTED_CALL_TERMINATOR)
            0010111b  0f                         ??                 0Fh
             0010111c  1f                         ??                 1Fh
            0010111d  44                        ??                 44h    D
             0010111e  00                        ??                 00h
             0010111f  00                        ??                 00h
                                                  //
                                                  // .plt.sec 
                                                  // SHT_PROGBITS  [0x1120 - 0x11ff]
                                                  // ram:00101120-ram:001011ff
                                                  //
                                                  *************************************************************************
                                                  *                         THUNK FUNCTION                          *
                                                  *************************************************************************
                                                  thunk int printf(char * __format, ...)
                                                       Thunked-Function: <EXTERNAL>::printf
                       int                            EAX:4                <RETURN>
                       char *                       RDI:8                 __format
                                                  <EXTERNAL>::printf                                                   XREF[4]:        main:001015c5(c), 00102168, 
                                                                                                                                                             00102220(*), 
                                                                                                                                                             _elfSectionHeaders::000003d0(*)  
            00101120  f3 0f 1e fa            ENDBR64
            00101124  f2 ff 25 3d            JMP              qword ptr [-><EXTERNAL>::printf]                             int printf(char * __format, ...)
                              2e 00 00
                                                  -- Flow Override: CALL_RETURN (COMPUTED_CALL_TERMINATOR)
            0010112b  0f                         ??                 0Fh
             0010112c  1f                         ??                 1Fh
            0010112d  44                        ??                 44h    D
             0010112e  00                        ??                 00h
             0010112f  00                        ??                 00h
                                                  *************************************************************************
                                                  *                         THUNK FUNCTION                          *
                                                  *************************************************************************
                                                  thunk int snprintf(char * __s, size_t __maxlen, char * __format, ...)
                                                       Thunked-Function: <EXTERNAL>::snprintf
                       int                            EAX:4                <RETURN>
                       char *                       RDI:8                 __s
                       size_t                        RSI:8                 __maxlen
                       char *                       RDX:8                __format
                                                  <EXTERNAL>::snprintf                                               XREF[1]:        main:001014d8(c)  
            00101130  f3 0f 1e fa            ENDBR64
            00101134  f2 ff 25 35            JMP              qword ptr [-><EXTERNAL>::snprintf]                         int snprintf(char * __s, size_t __maxl
                              2e 00 00
                                                  -- Flow Override: CALL_RETURN (COMPUTED_CALL_TERMINATOR)
            0010113b  0f                         ??                 0Fh
             0010113c  1f                         ??                 1Fh
            0010113d  44                        ??                 44h    D
             0010113e  00                        ??                 00h
             0010113f  00                        ??                 00h
                                                  *************************************************************************
                                                  *                         THUNK FUNCTION                          *
                                                  *************************************************************************
                                                  thunk int puts(char * __s)
                                                       Thunked-Function: <EXTERNAL>::puts
                       int                            EAX:4                <RETURN>
                       char *                       RDI:8                 __s
                                                  <EXTERNAL>::puts                                                     XREF[4]:        main:0010157f(c), 
                                                                                                                                                             main:0010162a(c), 
                                                                                                                                                             main:00101638(c), 
                                                                                                                                                             main:0010164c(c)  
            00101140  f3 0f 1e fa            ENDBR64
            00101144  f2 ff 25 2d            JMP              qword ptr [-><EXTERNAL>::puts]                               int puts(char * __s)
                              2e 00 00
                                                  -- Flow Override: CALL_RETURN (COMPUTED_CALL_TERMINATOR)
            0010114b  0f                         ??                 0Fh
             0010114c  1f                         ??                 1Fh
            0010114d  44                        ??                 44h    D
             0010114e  00                        ??                 00h
             0010114f  00                        ??                 00h
                                                  *************************************************************************
                                                  *                         THUNK FUNCTION                          *
                                                  *************************************************************************
                                                  thunk int strncmp(char * __s1, char * __s2, size_t __n)
                                                       Thunked-Function: <EXTERNAL>::strncmp
                       int                            EAX:4                <RETURN>
                       char *                       RDI:8                 __s1
                       char *                       RSI:8                 __s2
                       size_t                        RDX:8                __n
                                                  <EXTERNAL>::strncmp                                               XREF[2]:        main:00101597(c), 
                                                                                                                                                             main:001015f5(c)  
            00101150  f3 0f 1e fa            ENDBR64
            00101154  f2 ff 25 25            JMP              qword ptr [-><EXTERNAL>::strncmp]                         int strncmp(char * __s1, char * __s2,
                              2e 00 00
                                                  -- Flow Override: CALL_RETURN (COMPUTED_CALL_TERMINATOR)
            0010115b  0f                         ??                 0Fh
             0010115c  1f                         ??                 1Fh
            0010115d  44                        ??                 44h    D
             0010115e  00                        ??                 00h
             0010115f  00                        ??                 00h
                                                  *************************************************************************
                                                  *                         THUNK FUNCTION                          *
                                                  *************************************************************************
                                                  thunk int system(char * __command)
                                                       Thunked-Function: <EXTERNAL>::system
                       int                            EAX:4                <RETURN>
                       char *                       RDI:8                 __command
                                                  <EXTERNAL>::system                                                 XREF[1]:        main:00101658(c)  
            00101160  f3 0f 1e fa            ENDBR64
            00101164  f2 ff 25 1d            JMP              qword ptr [-><EXTERNAL>::system]                           int system(char * __command)
                              2e 00 00
                                                  -- Flow Override: CALL_RETURN (COMPUTED_CALL_TERMINATOR)
            0010116b  0f                         ??                 0Fh
             0010116c  1f                         ??                 1Fh
            0010116d  44                        ??                 44h    D
             0010116e  00                        ??                 00h
             0010116f  00                        ??                 00h
                                                  *************************************************************************
                                                  *                         THUNK FUNCTION                          *
                                                  *************************************************************************
                                                  thunk int MD5_Final(uchar * md, MD5_CTX * c)
                                                       Thunked-Function: <EXTERNAL>::MD5_Final
                       int                            EAX:4                <RETURN>
                       uchar *                     RDI:8                 md
                       MD5_CTX *              RSI:8                 c
                                                  <EXTERNAL>::MD5_Final                                           XREF[1]:        calc_md5:001013dc(c)  
            00101170  f3 0f 1e fa            ENDBR64
            00101174  f2 ff 25 15            JMP              qword ptr [-><EXTERNAL>::MD5_Final]                     int MD5_Final(uchar * md, MD5_CT
                              2e 00 00
                                                  -- Flow Override: CALL_RETURN (COMPUTED_CALL_TERMINATOR)
            0010117b  0f                         ??                 0Fh
             0010117c  1f                         ??                 1Fh
            0010117d  44                        ??                 44h    D
             0010117e  00                        ??                 00h
             0010117f  00                        ??                 00h
                                                  *************************************************************************
                                                  *                         THUNK FUNCTION                          *
                                                  *************************************************************************
                                                  thunk int MD5_Update(MD5_CTX * c, void * data, size_t len)
                                                       Thunked-Function: <EXTERNAL>::MD5_Upd
                       int                            EAX:4                <RETURN>
                       MD5_CTX *              RDI:8                 c
                       void *                       RSI:8                 data
                       size_t                        RDX:8                len
                                                  <EXTERNAL>::MD5_Update                                       XREF[1]:        calc_md5:001013c9(c)  
            00101180  f3 0f 1e fa            ENDBR64
            00101184  f2 ff 25 0d            JMP              qword ptr [-><EXTERNAL>::MD5_Update]                 int MD5_Update(MD5_CTX * c, void 
                              2e 00 00
                                                  -- Flow Override: CALL_RETURN (COMPUTED_CALL_TERMINATOR)
            0010118b  0f                         ??                 0Fh
             0010118c  1f                         ??                 1Fh
            0010118d  44                        ??                 44h    D
             0010118e  00                        ??                 00h
             0010118f  00                        ??                 00h
                                                  *************************************************************************
                                                  *                         THUNK FUNCTION                          *
                                                  *************************************************************************
                                                  thunk int sprintf(char * __s, char * __format, ...)
                                                       Thunked-Function: <EXTERNAL>::sprintf
                       int                            EAX:4                <RETURN>
                       char *                       RDI:8                 __s
                       char *                       RSI:8                 __format
                                                  <EXTERNAL>::sprintf                                                 XREF[1]:        main:00101532(c)  
            00101190  f3 0f 1e fa            ENDBR64
            00101194  f2 ff 25 05            JMP              qword ptr [-><EXTERNAL>::sprintf]                           int sprintf(char * __s, char * __forma
                              2e 00 00
                                                  -- Flow Override: CALL_RETURN (COMPUTED_CALL_TERMINATOR)
            0010119b  0f                         ??                 0Fh
             0010119c  1f                         ??                 1Fh
            0010119d  44                        ??                 44h    D
             0010119e  00                        ??                 00h
             0010119f  00                        ??                 00h
                                                  *************************************************************************
                                                  *                         THUNK FUNCTION                          *
                                                  *************************************************************************
                                                  thunk int setxattr(char * __path, char * __name, void * __value, s
                                                       Thunked-Function: <EXTERNAL>::setxattr
                       int                            EAX:4                <RETURN>
                       char *                       RDI:8                 __path
                       char *                       RSI:8                 __name
                       void *                       RDX:8                __value
                       size_t                        RCX:8                __size
                       int                            R8D:4                __flags
                                                  <EXTERNAL>::setxattr                                                XREF[1]:        main:0010161e(c)  
             001011a0  f3 0f 1e fa            ENDBR64
             001011a4  f2 ff 25 fd             JMP              qword ptr [-><EXTERNAL>::setxattr]                          int setxattr(char * __path, char * __n
                              2d 00 00
                                                  -- Flow Override: CALL_RETURN (COMPUTED_CALL_TERMINATOR)
             001011ab  0f                         ??                 0Fh
             001011ac  1f                         ??                 1Fh
             001011ad  44                        ??                 44h    D
             001011ae  00                        ??                 00h
              001011af  00                        ??                 00h
                                                  *************************************************************************
                                                  *                         THUNK FUNCTION                          *
                                                  *************************************************************************
                                                  thunk ssize_t readlink(char * __path, char * __buf, size_t __len)
                                                       Thunked-Function: <EXTERNAL>::readlink
                       ssize_t                      RAX:8                <RETURN>
                       char *                       RDI:8                 __path
                       char *                       RSI:8                 __buf
                       size_t                        RDX:8                __len
                                                  <EXTERNAL>::readlink                                               XREF[1]:        main:00101554(c)  
            001011b0  f3 0f 1e fa            ENDBR64
            001011b4  f2 ff 25 f5             JMP              qword ptr [-><EXTERNAL>::readlink]                         ssize_t readlink(char * __path, char *
                              2d 00 00
                                                  -- Flow Override: CALL_RETURN (COMPUTED_CALL_TERMINATOR)
            001011bb  0f                         ??                 0Fh
             001011bc  1f                         ??                 1Fh
            001011bd  44                        ??                 44h    D
             001011be  00                        ??                 00h
             001011bf  00                        ??                 00h
                                                  *************************************************************************
                                                  *                         THUNK FUNCTION                          *
                                                  *************************************************************************
                                                  thunk noreturn undefined __stack_chk_fail()
                                                       Thunked-Function: <EXTERNAL>::__stack_ch
                       undefined                 <UNASSIGN     <RETURN>
                                                  <EXTERNAL>::__stack_chk_fail                                   XREF[1]:        main:00101671(c)  
             001011c0  f3 0f 1e fa            ENDBR64
             001011c4  f2 ff 25 ed            JMP              qword ptr [-><EXTERNAL>::__stack_chk_fail]             undefined __stack_chk_fail()
                              2d 00 00
                                                  -- Flow Override: CALL_RETURN (COMPUTED_CALL_TERMINATOR)
             001011cb  0f                         ??                 0Fh
             001011cc  1f                         ??                 1Fh
             001011cd  44                        ??                 44h    D
             001011ce  00                        ??                 00h
              001011cf  00                        ??                 00h
                                                  *************************************************************************
                                                  *                         THUNK FUNCTION                          *
                                                  *************************************************************************
                                                  thunk ssize_t getxattr(char * __path, char * __name, void * __val
                                                       Thunked-Function: <EXTERNAL>::getxattr
                       ssize_t                      RAX:8                <RETURN>
                       char *                       RDI:8                 __path
                       char *                       RSI:8                 __name
                       void *                       RDX:8                __value
                       size_t                        RCX:8                __size
                                                  <EXTERNAL>::getxattr                                               XREF[1]:        main:00101573(c)  
            001011d0  f3 0f 1e fa            ENDBR64
            001011d4  f2 ff 25 e5            JMP              qword ptr [-><EXTERNAL>::getxattr]                         ssize_t getxattr(char * __path, char *
                              2d 00 00
                                                  -- Flow Override: CALL_RETURN (COMPUTED_CALL_TERMINATOR)
            001011db  0f                         ??                 0Fh
             001011dc  1f                         ??                 1Fh
            001011dd  44                        ??                 44h    D
             001011de  00                        ??                 00h
             001011df  00                        ??                 00h
                                                  *************************************************************************
                                                  *                         THUNK FUNCTION                          *
                                                  *************************************************************************
                                                  thunk int MD5_Init(MD5_CTX * c)
                                                       Thunked-Function: <EXTERNAL>::MD5_Init
                       int                            EAX:4                <RETURN>
                       MD5_CTX *              RDI:8                 c
                                                  <EXTERNAL>::MD5_Init                                             XREF[1]:        calc_md5:001013b2(c)  
             001011e0  f3 0f 1e fa            ENDBR64
             001011e4  f2 ff 25 dd            JMP              qword ptr [-><EXTERNAL>::MD5_Init]                       int MD5_Init(MD5_CTX * c)
                              2d 00 00
                                                  -- Flow Override: CALL_RETURN (COMPUTED_CALL_TERMINATOR)
             001011eb  0f                         ??                 0Fh
             001011ec  1f                         ??                 1Fh
             001011ed  44                        ??                 44h    D
             001011ee  00                        ??                 00h
              001011ef  00                        ??                 00h
                                                  *************************************************************************
                                                  *                         THUNK FUNCTION                          *
                                                  *************************************************************************
                                                  thunk undefined __isoc99_scanf()
                                                       Thunked-Function: <EXTERNAL>::__isoc99_s
                       undefined                 <UNASSIGN     <RETURN>
                                                  <EXTERNAL>::__isoc99_scanf                                     XREF[1]:        main:001015dd(c)  
             001011f0  f3 0f 1e fa            ENDBR64
             001011f4  f2 ff 25 d5            JMP              qword ptr [-><EXTERNAL>::__isoc99_scanf]               undefined __isoc99_scanf()
                              2d 00 00
                                                  -- Flow Override: CALL_RETURN (COMPUTED_CALL_TERMINATOR)
             001011fb  0f                         ??                 0Fh
              001011fc  1f                         ??                 1Fh
             001011fd  44                        ??                 44h    D
              001011fe  00                        ??                 00h
              001011ff  00                        ??                 00h
                                                  //
                                                  // .text 
                                                  // SHT_PROGBITS  [0x1200 - 0x16f4]
                                                  // ram:00101200-ram:001016f4
                                                  //
                                                  *************************************************************************
                                                  *                              FUNCTION                              *
                                                  *************************************************************************
                                                  undefined processEntry _start()
                       undefined                 <UNASSIGN     <RETURN>
                       undefined8               Stack[-0x10]:8   local_10                                                         XREF[1]:        00101212(*)  
                                                  _start                                                                            XREF[5]:        Entry Point(*), 00100018(*), 
                                                                                                                                                             00102170, 001021c8(*), 
                                                                                                                                                             _elfSectionHeaders::00000410(*)  
            00101200  f3 0f 1e fa            ENDBR64
            00101204  31 ed                   XOR             EBP,EBP
            00101206  49 89 d1              MOV            R9,RDX
            00101209  5e                        POP              RSI
             0010120a  48 89 e2              MOV            RDX,RSP
            0010120d  48 83 e4 f0          AND             RSP,-0x10
            00101211  50                        PUSH           RAX
            00101212  54                        PUSH           RSP=>local_10
            00101213  4c 8d 05 d6         LEA              R8,[__libc_csu_fini]
                              04 00 00
             0010121a  48 8d 0d 5f          LEA              RCX,[__libc_csu_init]
                              04 00 00
            00101221  48 8d 3d bc         LEA              RDI,[main]
                              01 00 00
            00101228  ff 15 b2 2d           CALL            qword ptr [-><EXTERNAL>::__libc_start_main]           undefined __libc_start_main()
                              00 00                                                                                                                            = 00107028
             0010122e  f4                         HLT
             0010122f  90                        ??                 90h
                                                  *************************************************************************
                                                  *                              FUNCTION                              *
                                                  *************************************************************************
                                                  undefined deregister_tm_clones()
                       undefined                 <UNASSIGN     <RETURN>
                                                  deregister_tm_clones                                                    XREF[1]:        __do_global_dtors_aux:001012c7(c)  
            00101230  48 8d 3d d9         LEA              RDI,[__TMC_END__]
                              2d 00 00
            00101237  48 8d 05 d2         LEA              RAX,[__TMC_END__]
                              2d 00 00
             0010123e  48 39 f8               CMP             RAX,RDI
            00101241  74 15                   JZ                 LAB_00101258
            00101243  48 8b 05 9e         MOV            RAX=><EXTERNAL>::_ITM_deregisterTMCloneTab    = ??
                              2d 00 00                                                                                                                       = 00107038
             0010124a  48 85 c0              TEST            RAX,RAX
            0010124d  74 09                   JZ                 LAB_00101258
             0010124f  ff e0                     JMP              RAX=><EXTERNAL>::_ITM_deregisterTMCloneTable undefined _ITM_deregisterTMClone
                                                  -- Flow Override: CALL_RETURN (COMPUTED_CALL_TERMINATOR)
            00101251  0f                         ??                 0Fh
            00101252  1f                         ??                 1Fh
            00101253  80                        ??                 80h
            00101254  00                        ??                 00h
            00101255  00                        ??                 00h
            00101256  00                        ??                 00h
            00101257  00                        ??                 00h
                                                  LAB_00101258                                                             XREF[2]:        00101241(j), 0010124d(j)  
            00101258  c3                        RET
            00101259  0f                         ??                 0Fh
             0010125a  1f                         ??                 1Fh
            0010125b  80                        ??                 80h
             0010125c  00                        ??                 00h
            0010125d  00                        ??                 00h
             0010125e  00                        ??                 00h
             0010125f  00                        ??                 00h
                                                  *************************************************************************
                                                  *                              FUNCTION                              *
                                                  *************************************************************************
                                                  undefined register_tm_clones()
                       undefined                 <UNASSIGN     <RETURN>
                                                  register_tm_clones                                                        XREF[1]:        frame_dummy:001012e0(T), 
                                                                                                                                                             frame_dummy:001012e4(c)  
            00101260  48 8d 3d a9         LEA              RDI,[__TMC_END__]
                              2d 00 00
            00101267  48 8d 35 a2         LEA              RSI,[__TMC_END__]
                              2d 00 00
             0010126e  48 29 fe               SUB             RSI,RDI
            00101271  48 89 f0               MOV            RAX,RSI
            00101274  48 c1 ee 3f          SHR             RSI,0x3f
            00101278  48 c1 f8 03          SAR              RAX,0x3
             0010127c  48 01 c6              ADD             RSI,RAX
             0010127f  48 d1 fe               SAR              RSI,0x1
            00101282  74 14                   JZ                 LAB_00101298
            00101284  48 8b 05 65         MOV            RAX=><EXTERNAL>::_ITM_registerTMCloneTable,    = ??
                              2d 00 00                                                                                                                       = 00107040
            0010128b  48 85 c0              TEST            RAX,RAX
             0010128e  74 08                   JZ                 LAB_00101298
            00101290  ff e0                     JMP              RAX=><EXTERNAL>::_ITM_registerTMCloneTable     undefined _ITM_registerTMCloneTa
                                                  -- Flow Override: CALL_RETURN (COMPUTED_CALL_TERMINATOR)
            00101292  66                        ??                 66h    f
            00101293  0f                         ??                 0Fh
            00101294  1f                         ??                 1Fh
            00101295  44                        ??                 44h    D
            00101296  00                        ??                 00h
            00101297  00                        ??                 00h
                                                  LAB_00101298                                                             XREF[2]:        00101282(j), 0010128e(j)  
            00101298  c3                        RET
            00101299  0f                         ??                 0Fh
             0010129a  1f                         ??                 1Fh
            0010129b  80                        ??                 80h
             0010129c  00                        ??                 00h
            0010129d  00                        ??                 00h
             0010129e  00                        ??                 00h
             0010129f  00                        ??                 00h
                                                  *************************************************************************
                                                  *                              FUNCTION                              *
                                                  *************************************************************************
                                                  undefined __do_global_dtors_aux()
                       undefined                 <UNASSIGN     <RETURN>
                                                  __do_global_dtors_aux                                                  XREF[3]:        Entry Point(*), 
                                                                                                                                                             __libc_csu_init:001016c9(c), 
                                                                                                                                                             00103d48(*)  
             001012a0  f3 0f 1e fa            ENDBR64
             001012a4  80 3d 75 2d         CMP             byte ptr [completed.8061],0x0                                     = ??
                              00 00 00
             001012ab  75 2b                   JNZ              LAB_001012d8
             001012ad  55                        PUSH           RBP
             001012ae  48 83 3d 42         CMP             qword ptr [-><EXTERNAL>::__cxa_finalize],0x0          = 00107090
                              2d 00 00 00
            001012b6  48 89 e5              MOV            RBP,RSP
            001012b9  74 0c                   JZ                 LAB_001012c7
            001012bb  48 8b 3d 46         MOV            RDI,qword ptr [->__dso_handle]                                   = 00104008
                              2d 00 00
             001012c2  e8 49 fe ff ff         CALL            FUN_00101110                                                            undefined FUN_00101110()
                                                  LAB_001012c7                                                             XREF[1]:        001012b9(j)  
             001012c7  e8 64 ff ff ff          CALL            deregister_tm_clones                                                    undefined deregister_tm_clones()
             001012cc  c6 05 4d 2d         MOV            byte ptr [completed.8061],0x1                                     = ??
                              00 00 01
            001012d3  5d                        POP              RBP
            001012d4  c3                        RET
            001012d5  0f                         ??                 0Fh
            001012d6  1f                         ??                 1Fh
            001012d7  00                        ??                 00h
                                                  LAB_001012d8                                                             XREF[1]:        001012ab(j)  
            001012d8  c3                        RET
            001012d9  0f                         ??                 0Fh
             001012da  1f                         ??                 1Fh
            001012db  80                        ??                 80h
             001012dc  00                        ??                 00h
            001012dd  00                        ??                 00h
             001012de  00                        ??                 00h
             001012df  00                        ??                 00h
                                                  *************************************************************************
                                                  *                         THUNK FUNCTION                          *
                                                  *************************************************************************
                                                  thunk undefined frame_dummy()
                                                       Thunked-Function: register_tm_clones
                       undefined                 <UNASSIGN     <RETURN>
                                                  frame_dummy                                                               XREF[3]:        Entry Point(*), 
                                                                                                                                                             __libc_csu_init:001016c9(c), 
                                                                                                                                                             00103d40(*)  
             001012e0  f3 0f 1e fa            ENDBR64
             001012e4  e9 77 ff ff ff          JMP              register_tm_clones                                                        undefined register_tm_clones()
                                                  -- Flow Override: CALL_RETURN (CALL_TERMINATOR)
                                                  *************************************************************************
                                                  *                              FUNCTION                              *
                                                  *************************************************************************
                                                  undefined __get_cpuid_max()
                       undefined                 <UNASSIGN     <RETURN>
                       undefined4               Stack[-0x14]:4   local_14                                                         XREF[1]:        00101305(W)  
                       undefined4               Stack[-0x18]:4   local_18                                                         XREF[1]:        00101302(W)  
                       undefined4               Stack[-0x1c]:4   local_1c                                                          XREF[2]:        001012ff(W), 
                                                                                                                                                                             00101313(R)  
                       undefined4               Stack[-0x20]:4   local_20                                                         XREF[2]:        001012fc(W), 
                                                                                                                                                                             00101318(R)  
                       undefined4               Stack[-0x24]:4   local_24                                                         XREF[2]:        001012ee(W), 
                                                                                                                                                                             001012f5(R)  
                       undefined8               Stack[-0x30]:8   local_30                                                         XREF[3]:        001012f1(W), 
                                                                                                                                                                             00101308(R), 
                                                                                                                                                                             0010130f(R)  
                                                  __get_cpuid_max                                                           XREF[3]:        __get_cpuid:0010134f(c), 00102178, 
                                                                                                                                                             00102238(*)  
             001012e9  55                        PUSH           RBP
             001012ea  48 89 e5              MOV            RBP,RSP
             001012ed  53                        PUSH           RBX
             001012ee  89 7d e4              MOV            dword ptr [RBP + local_24],EDI
             001012f1  48 89 75 d8         MOV            qword ptr [RBP + local_30],RSI
             001012f5  8b 45 e4              MOV            EAX,dword ptr [RBP + local_24]
             001012f8  0f a2                    CPUID
              001012fa  89 de                   MOV            ESI,EBX
              001012fc  89 45 e8              MOV            dword ptr [RBP + local_20],EAX
              001012ff  89 75 ec              MOV            dword ptr [RBP + local_1c],ESI
            00101302  89 4d f0               MOV            dword ptr [RBP + local_18],ECX
            00101305  89 55 f4               MOV            dword ptr [RBP + local_14],EDX
            00101308  48 83 7d d8         CMP             qword ptr [RBP + local_30],0x0
                              00
            0010130d  74 09                   JZ                 LAB_00101318
             0010130f  48 8b 45 d8         MOV            RAX,qword ptr [RBP + local_30]
            00101313  8b 55 ec              MOV            EDX,dword ptr [RBP + local_1c]
            00101316  89 10                   MOV            dword ptr [RAX],EDX
                                                  LAB_00101318                                                             XREF[1]:        0010130d(j)  
            00101318  8b 45 e8              MOV            EAX,dword ptr [RBP + local_20]
            0010131b  5b                        POP              RBX
             0010131c  5d                        POP              RBP
            0010131d  c3                        RET
                                                  *************************************************************************
                                                  *                              FUNCTION                              *
                                                  *************************************************************************
                                                  undefined __get_cpuid()
                       undefined                 <UNASSIGN     <RETURN>
                       undefined4               Stack[-0x14]:4   local_14                                                         XREF[3]:        00101354(W), 
                                                                                                                                                                             00101357(R), 
                                                                                                                                                                             0010135d(R)  
                       undefined4               Stack[-0x18]:4   local_18                                                         XREF[2]:        00101342(W), 
                                                                                                                                                                             00101345(R)  
                       undefined4               Stack[-0x24]:4   local_24                                                         XREF[4]:        00101327(W), 
                                                                                                                                                                             0010133a(R), 
                                                                                                                                                                             00101360(R), 
                                                                                                                                                                             0010136c(R)  
                       undefined8               Stack[-0x30]:8   local_30                                                         XREF[2]:        0010132a(W), 
                                                                                                                                                                             00101373(R)  
                       undefined8               Stack[-0x38]:8   local_38                                                         XREF[2]:        0010132e(W), 
                                                                                                                                                                             00101379(R)  
                       undefined8               Stack[-0x40]:8   local_40                                                         XREF[2]:        00101332(W), 
                                                                                                                                                                             0010137f(R)  
                       undefined8               Stack[-0x48]:8   local_48                                                         XREF[2]:        00101336(W), 
                                                                                                                                                                             00101385(R)  
                                                  __get_cpuid                                                                  XREF[3]:        main:00101456(c), 00102180, 
                                                                                                                                                             00102258(*)  
             0010131e  55                        PUSH           RBP
             0010131f  48 89 e5              MOV            RBP,RSP
            00101322  53                        PUSH           RBX
            00101323  48 83 ec 38         SUB             RSP,0x38
            00101327  89 7d e4              MOV            dword ptr [RBP + local_24],EDI
             0010132a  48 89 75 d8         MOV            qword ptr [RBP + local_30],RSI
             0010132e  48 89 55 d0         MOV            qword ptr [RBP + local_38],RDX
            00101332  48 89 4d c8         MOV            qword ptr [RBP + local_40],RCX
            00101336  4c 89 45 c0         MOV            qword ptr [RBP + local_48],R8
             0010133a  8b 45 e4              MOV            EAX,dword ptr [RBP + local_24]
            0010133d  25 00 00 00         AND             EAX,0x80000000
                              80
            00101342  89 45 f0               MOV            dword ptr [RBP + local_18],EAX
            00101345  8b 45 f0               MOV            EAX,dword ptr [RBP + local_18]
            00101348  be 00 00 00         MOV            ESI,0x0
                              00
            0010134d  89 c7                   MOV            EDI,EAX
             0010134f  e8 95 ff ff ff          CALL            __get_cpuid_max                                                           undefined __get_cpuid_max()
            00101354  89 45 f4               MOV            dword ptr [RBP + local_14],EAX
            00101357  83 7d f4 00          CMP             dword ptr [RBP + local_14],0x0
            0010135b  74 08                   JZ                 LAB_00101365
            0010135d  8b 45 f4               MOV            EAX,dword ptr [RBP + local_14]
            00101360  3b 45 e4              CMP             EAX,dword ptr [RBP + local_24]
            00101363  73 07                   JNC              LAB_0010136c
                                                  LAB_00101365                                                             XREF[1]:        0010135b(j)  
            00101365  b8 00 00 00         MOV            EAX,0x0
                              00
             0010136a  eb 24                   JMP              LAB_00101390
                                                  LAB_0010136c                                                             XREF[1]:        00101363(j)  
             0010136c  8b 45 e4              MOV            EAX,dword ptr [RBP + local_24]
             0010136f  0f a2                    CPUID
            00101371  89 de                   MOV            ESI,EBX
            00101373  48 8b 7d d8         MOV            RDI,qword ptr [RBP + local_30]
            00101377  89 07                   MOV            dword ptr [RDI],EAX
            00101379  48 8b 45 d0         MOV            RAX,qword ptr [RBP + local_38]
            0010137d  89 30                   MOV            dword ptr [RAX],ESI
             0010137f  48 8b 45 c8         MOV            RAX,qword ptr [RBP + local_40]
            00101383  89 08                   MOV            dword ptr [RAX],ECX
            00101385  48 8b 45 c0         MOV            RAX,qword ptr [RBP + local_48]
            00101389  89 10                   MOV            dword ptr [RAX],EDX
            0010138b  b8 01 00 00         MOV            EAX,0x1
                              00
                                                  LAB_00101390                                                             XREF[1]:        0010136a(j)  
            00101390  48 83 c4 38         ADD             RSP,0x38
            00101394  5b                        POP              RBX
            00101395  5d                        POP              RBP
            00101396  c3                        RET
                                                  *************************************************************************
                                                  *                              FUNCTION                              *
                                                  *************************************************************************
                                                  undefined calc_md5()
                       undefined                 <UNASSIGN     <RETURN>
                       undefined8               Stack[-0x10]:8   local_10                                                         XREF[2]:        001013a3(W), 
                                                                                                                                                                             001013bb(R)  
                       undefined8               Stack[-0x18]:8   local_18                                                         XREF[2]:        001013a7(W), 
                                                                                                                                                                             001013b7(R)  
                                                  calc_md5                                                                      XREF[4]:        Entry Point(*), main:001014e9(c), 
                                                                                                                                                             00102188, 0010227c(*)  
            00101397  f3 0f 1e fa            ENDBR64
            0010139b  55                        PUSH           RBP
             0010139c  48 89 e5              MOV            RBP,RSP
             0010139f  48 83 ec 10         SUB             RSP,0x10
             001013a3  48 89 7d f8          MOV            qword ptr [RBP + local_10],RDI
             001013a7  48 89 75 f0          MOV            qword ptr [RBP + local_18],RSI
             001013ab  48 8d 3d 2e         LEA              RDI,[md5handler]                                                         = ??
                              4d 00 00
            001013b2  e8 29 fe ff ff         CALL            <EXTERNAL>::MD5_Init                                              int MD5_Init(MD5_CTX * c)
            001013b7  48 8b 55 f0          MOV            RDX,qword ptr [RBP + local_18]
            001013bb  48 8b 45 f8          MOV            RAX,qword ptr [RBP + local_10]
             001013bf  48 89 c6              MOV            RSI,RAX
             001013c2  48 8d 3d 17         LEA              RDI,[md5handler]                                                         = ??
                              4d 00 00
             001013c9  e8 b2 fd ff ff         CALL            <EXTERNAL>::MD5_Update                                        int MD5_Update(MD5_CTX * c, void 
             001013ce  48 8d 35 0b         LEA              RSI,[md5handler]                                                         = ??
                              4d 00 00
            001013d5  48 8d 3d 94         LEA              RDI,[md5digest]                                                           = ??
                              3c 00 00
             001013dc  e8 8f fd ff ff          CALL            <EXTERNAL>::MD5_Final                                           int MD5_Final(uchar * md, MD5_CT
             001013e1  90                        NOP
             001013e2  c9                        LEAVE
             001013e3  c3                        RET
                                                  *************************************************************************
                                                  *                              FUNCTION                              *
                                                  *************************************************************************
                                                  undefined main()
                       undefined                 <UNASSIGN     <RETURN>
                       undefined8               Stack[-0x10]:8   local_10                                                         XREF[2]:        00101400(W), 
                                                                                                                                                                             00101662(R)  
                       undefined4               Stack[-0x14]:4   local_14                                                         XREF[4]:        00101430(W), 
                                                                                                                                                                             001014b2(W), 
                                                                                                                                                                             001014b5(R), 
                                                                                                                                                                             001015b1(R)  
                       undefined4               Stack[-0x18]:4   local_18                                                         XREF[4]:        00101429(W), 
                                                                                                                                                                             00101485(W), 
                                                                                                                                                                             001014b8(R), 
                                                                                                                                                                             001015b4(R)  
                       undefined4               Stack[-0x1c]:4   local_1c                                                          XREF[2]:        00101406(W), 
                                                                                                                                                                             0010144e(R)  
                       undefined4               Stack[-0x20]:4   local_20                                                         XREF[5]:        001014ee(W), 
                                                                                                                                                                             001014fc(R), 
                                                                                                                                                                             0010150f(R), 
                                                                                                                                                                             00101537(RW), 
                                                                                                                                                                             0010153b(R)  
                       undefined4               Stack[-0x24]:4   local_24                                                         XREF[4]:        00101437(W), 
                                                                                                                                                                             001015a0(W), 
                                                                                                                                                                             001015a7(R), 
                                                                                                                                                                             0010163f(R)  
                       undefined4               Stack[-0x28]:4   local_28                                                         XREF[6]:        00101422(W), 
                                                                                                                                                                             0010143e(*), 
                                                                                                                                                                             00101488(R), 
                                                                                                                                                                             00101490(R), 
                                                                                                                                                                             0010149d(R), 
                                                                                                                                                                             001014aa(R)  
                       undefined4               Stack[-0x2c]:4   local_2c                                                          XREF[2]:        0010141b(W), 
                                                                                                                                                                             00101442(*)  
                       undefined4               Stack[-0x30]:4   local_30                                                         XREF[2]:        00101414(W), 
                                                                                                                                                                             00101446(*)  
                       undefined4               Stack[-0x34]:4   local_34                                                         XREF[6]:        0010140d(W), 
                                                                                                                                                                             0010144a(*), 
                                                                                                                                                                             0010145b(R), 
                                                                                                                                                                             00101463(R), 
                                                                                                                                                                             00101470(R), 
                                                                                                                                                                             0010147d(R)  
                       undefined4               Stack[-0x3c]:4   local_3c                                                          XREF[1]:        001013f0(W)  
                       undefined8               Stack[-0x48]:8   local_48                                                         XREF[1]:        001013f3(W)  
                                                  main                                                                             XREF[4]:        Entry Point(*), _start:00101221(*), 
                                                                                                                                                             00102190, 0010229c(*)  
             001013e4  f3 0f 1e fa            ENDBR64
             001013e8  55                        PUSH           RBP
             001013e9  48 89 e5              MOV            RBP,RSP
             001013ec  48 83 ec 40         SUB             RSP,0x40
             001013f0  89 7d cc              MOV            dword ptr [RBP + local_3c],EDI
             001013f3  48 89 75 c0         MOV            qword ptr [RBP + local_48],RSI
             001013f7  64 48 8b 04         MOV            RAX,qword ptr FS:[0x28]
                              25 28 00 00 
                              00
            00101400  48 89 45 f8          MOV            qword ptr [RBP + local_10],RAX
            00101404  31 c0                   XOR             EAX,EAX
            00101406  c7 45 ec 01         MOV            dword ptr [RBP + local_1c],0x1
                              00 00 00
            0010140d  c7 45 d4 03         MOV            dword ptr [RBP + local_34],0x3
                              00 00 00
            00101414  c7 45 d8 00         MOV            dword ptr [RBP + local_30],0x0
                              00 00 00
            0010141b  c7 45 dc 00         MOV            dword ptr [RBP + local_2c],0x0
                              00 00 00
            00101422  c7 45 e0 00         MOV            dword ptr [RBP + local_28],0x0
                              00 00 00
            00101429  c7 45 f0 00          MOV            dword ptr [RBP + local_18],0x0
                              00 00 00
            00101430  c7 45 f4 00          MOV            dword ptr [RBP + local_14],0x0
                              00 00 00
            00101437  c7 45 e4 00         MOV            dword ptr [RBP + local_24],0x0
                              00 00 00
             0010143e  48 8d 7d e0         LEA              RDI=>local_28,[RBP + -0x20]
            00101442  48 8d 4d dc         LEA              RCX=>local_2c,[RBP + -0x24]
            00101446  48 8d 55 d8         LEA              RDX=>local_30,[RBP + -0x28]
             0010144a  48 8d 75 d4         LEA              RSI=>local_34,[RBP + -0x2c]
             0010144e  8b 45 ec              MOV            EAX,dword ptr [RBP + local_1c]
            00101451  49 89 f8               MOV            R8,RDI
            00101454  89 c7                   MOV            EDI,EAX
            00101456  e8 c3 fe ff ff         CALL            __get_cpuid                                                                   undefined __get_cpuid()
            0010145b  8b 45 d4              MOV            EAX,dword ptr [RBP + local_34]
             0010145e  c1 e8 18              SHR             EAX,0x18
            00101461  89 c2                   MOV            EDX,EAX
            00101463  8b 45 d4              MOV            EAX,dword ptr [RBP + local_34]
            00101466  c1 e0 08              SHL              EAX,0x8
            00101469  25 00 00 ff           AND             EAX,0xff0000
                              00
             0010146e  09 c2                   OR               EDX,EAX
            00101470  8b 45 d4              MOV            EAX,dword ptr [RBP + local_34]
            00101473  c1 e8 08              SHR             EAX,0x8
            00101476  25 00 ff 00           AND             EAX,0xff00
                              00
            0010147b  09 c2                   OR               EDX,EAX
            0010147d  8b 45 d4              MOV            EAX,dword ptr [RBP + local_34]
            00101480  c1 e0 18              SHL              EAX,0x18
            00101483  09 d0                   OR               EAX,EDX
            00101485  89 45 f0               MOV            dword ptr [RBP + local_18],EAX
            00101488  8b 45 e0              MOV            EAX,dword ptr [RBP + local_28]
            0010148b  c1 e8 18              SHR             EAX,0x18
             0010148e  89 c2                   MOV            EDX,EAX
            00101490  8b 45 e0              MOV            EAX,dword ptr [RBP + local_28]
            00101493  c1 e0 08              SHL              EAX,0x8
            00101496  25 00 00 ff           AND             EAX,0xff0000
                              00
            0010149b  09 c2                   OR               EDX,EAX
            0010149d  8b 45 e0              MOV            EAX,dword ptr [RBP + local_28]
             001014a0  c1 e8 08              SHR             EAX,0x8
             001014a3  25 00 ff 00           AND             EAX,0xff00
                              00
             001014a8  09 c2                   OR               EDX,EAX
             001014aa  8b 45 e0              MOV            EAX,dword ptr [RBP + local_28]
             001014ad  c1 e0 18              SHL              EAX,0x18
            001014b0  09 d0                   OR               EAX,EDX
            001014b2  89 45 f4               MOV            dword ptr [RBP + local_14],EAX
            001014b5  8b 55 f4               MOV            EDX,dword ptr [RBP + local_14]
            001014b8  8b 45 f0               MOV            EAX,dword ptr [RBP + local_18]
            001014bb  41 89 d0              MOV            R8D,EDX
             001014be  89 c1                   MOV            ECX,EAX
             001014c0  48 8d 15 41         LEA              RDX,[s_%08X%08X_00102008]                                    = "%08X%08X"
                              0b 00 00
             001014c7  be 11 00 00         MOV            ESI,0x11
                              00
             001014cc  48 8d 3d dd         LEA              RDI,[PSN]                                                                     = ??
                              4b 00 00
            001014d3  b8 00 00 00         MOV            EAX,0x0
                              00
            001014d8  e8 53 fc ff ff         CALL            <EXTERNAL>::snprintf                                                int snprintf(char * __s, size_t __maxl
            001014dd  be 10 00 00         MOV            ESI,0x10
                              00
             001014e2  48 8d 3d c7         LEA              RDI,[PSN]                                                                     = ??
                              4b 00 00
             001014e9  e8 a9 fe ff ff         CALL            calc_md5                                                                       undefined calc_md5()
             001014ee  c7 45 e8 00         MOV            dword ptr [RBP + local_20],0x0
                              00 00 00
             001014f5  eb 44                   JMP              LAB_0010153b
                                                  LAB_001014f7                                                              XREF[1]:        0010153f(j)  
             001014f7  b8 0f 00 00          MOV            EAX,0xf
                              00
              001014fc  2b 45 e8              SUB             EAX,dword ptr [RBP + local_20]
              001014ff  48 98                   CDQE
            00101501  48 8d 15 68         LEA              RDX,[md5digest]                                                          = ??
                              3b 00 00
            00101508  0f b6 04 10          MOVZX        EAX,byte ptr [RAX + RDX*0x1]=>md5digest               = ??
             0010150c  0f b6 c0               MOVZX        EAX,AL
             0010150f  8b 55 e8              MOV            EDX,dword ptr [RBP + local_20]
            00101512  01 d2                   ADD             EDX,EDX
            00101514  48 63 d2              MOVSXD      RDX,EDX
            00101517  48 8d 0d 22         LEA              RCX,[md5decode]                                                         = ??
                              3b 00 00
             0010151e  48 01 d1              ADD             RCX,RDX
            00101521  89 c2                   MOV            EDX,EAX
            00101523  48 8d 35 e7         LEA              RSI,[DAT_00102011]                                                    = 25h    %
                              0a 00 00
             0010152a  48 89 cf               MOV            RDI,RCX
            0010152d  b8 00 00 00         MOV            EAX,0x0
                              00
            00101532  e8 59 fc ff ff         CALL            <EXTERNAL>::sprintf                                                  int sprintf(char * __s, char * __forma
            00101537  83 45 e8 01         ADD             dword ptr [RBP + local_20],0x1
                                                  LAB_0010153b                                                             XREF[1]:        001014f5(j)  
            0010153b  83 7d e8 0f          CMP             dword ptr [RBP + local_20],0xf
             0010153f  7e b6                   JLE               LAB_001014f7
            00101541  ba 00 10 00         MOV            EDX,0x1000
                              00
            00101546  48 8d 35 33         LEA              RSI,[binaryPath]                                                           = ??
                              3b 00 00
            0010154d  48 8d 3d c2         LEA              RDI,[s_/proc/self/exe_00102016]                                  = "/proc/self/exe"
                              0a 00 00
            00101554  e8 57 fc ff ff         CALL            <EXTERNAL>::readlink                                               ssize_t readlink(char * __path, char *
            00101559  b9 00 10 00         MOV            ECX,0x1000
                              00
             0010155e  48 8d 15 db         LEA              RDX,[xattrValue]                                                          = ??
                              2a 00 00
            00101565  48 8d 35 b9         LEA              RSI,[s_user.license_00102025]                                     = "user.license"
                              0a 00 00
             0010156c  48 8d 3d 0d         LEA              RDI,[binaryPath]                                                           = ??
                              3b 00 00
            00101573  e8 58 fc ff ff         CALL            <EXTERNAL>::getxattr                                                ssize_t getxattr(char * __path, char *
            00101578  48 8d 3d b9         LEA              RDI,[s_Welcome_to_Lab2_super_secure_pro_001020    = "Welcome to Lab2 super secure pr
                              0a 00 00
             0010157f  e8 bc fb ff ff         CALL            <EXTERNAL>::puts                                                     int puts(char * __s)
            00101584  ba 21 00 00         MOV            EDX,0x21
                              00
            00101589  48 8d 35 b0         LEA              RSI,[xattrValue]                                                            = ??
                              2a 00 00
            00101590  48 8d 3d a9         LEA              RDI,[md5decode]                                                          = ??
                              3a 00 00
            00101597  e8 b4 fb ff ff         CALL            <EXTERNAL>::strncmp                                               int strncmp(char * __s1, char * __s2,
             0010159c  85 c0                   TEST            EAX,EAX
             0010159e  75 07                   JNZ              LAB_001015a7
             001015a0  c7 45 e4 01         MOV            dword ptr [RBP + local_24],0x1
                              00 00 00
                                                  LAB_001015a7                                                             XREF[1]:        0010159e(j)  
             001015a7  83 7d e4 00         CMP             dword ptr [RBP + local_24],0x0
             001015ab  0f 85 8e 00          JNZ              LAB_0010163f
                              00 00
            001015b1  8b 55 f4               MOV            EDX,dword ptr [RBP + local_14]
            001015b4  8b 45 f0               MOV            EAX,dword ptr [RBP + local_18]
            001015b7  89 c6                   MOV            ESI,EAX
            001015b9  48 8d 3d a0         LEA              RDI,[s_Your_HWID_is_%08X%08X._Enter_the_00102   = "Your HWID is %08X%08X.\nEnte
                              0a 00 00
             001015c0  b8 00 00 00         MOV            EAX,0x0
                              00
             001015c5  e8 56 fb ff ff         CALL            <EXTERNAL>::printf                                                   int printf(char * __format, ...)
             001015ca  48 8d 35 af          LEA              RSI,[userInput]                                                             = ??
                              4a 00 00
            001015d1  48 8d 3d b7         LEA              RDI,[DAT_0010208f]                                                    = 25h    %
                              0a 00 00
            001015d8  b8 00 00 00         MOV            EAX,0x0
                              00
            001015dd  e8 0e fc ff ff         CALL            <EXTERNAL>::__isoc99_scanf                                      undefined __isoc99_scanf()
             001015e2  ba 21 00 00         MOV            EDX,0x21
                              00
             001015e7  48 8d 35 92         LEA              RSI,[userInput]                                                             = ??
                              4a 00 00
             001015ee  48 8d 3d 4b         LEA              RDI,[md5decode]                                                          = ??
                              3a 00 00
             001015f5  e8 56 fb ff ff         CALL            <EXTERNAL>::strncmp                                               int strncmp(char * __s1, char * __s2,
              001015fa  85 c0                   TEST            EAX,EAX
              001015fc  75 33                   JNZ              LAB_00101631
              001015fe  41 b8 00 00         MOV            R8D,0x0
                              00 00
            00101604  b9 21 00 00         MOV            ECX,0x21
                              00
            00101609  48 8d 15 30         LEA              RDX,[md5decode]                                                         = ??
                              3a 00 00
            00101610  48 8d 35 0e         LEA              RSI,[s_user.license_00102025]                                     = "user.license"
                              0a 00 00
            00101617  48 8d 3d 62         LEA              RDI,[binaryPath]                                                           = ??
                              3a 00 00
             0010161e  e8 7d fb ff ff         CALL            <EXTERNAL>::setxattr                                                int setxattr(char * __path, char * __n
            00101623  48 8d 3d 6e         LEA              RDI,[s_Now_you_app_is_activated!_Thanks_00102098] = "Now you app is activated! Thanks
                              0a 00 00
             0010162a  e8 11 fb ff ff         CALL            <EXTERNAL>::puts                                                     int puts(char * __s)
             0010162f  eb 20                   JMP              LAB_00101651
                                                  LAB_00101631                                                             XREF[1]:        001015fc(j)  
            00101631  48 8d 3d 98         LEA              RDI,[s_Provided_key_is_wrong!_App_is_cl_001020d0]  = "Provided key is wrong! App is clo
                              0a 00 00
            00101638  e8 03 fb ff ff         CALL            <EXTERNAL>::puts                                                     int puts(char * __s)
            0010163d  eb 12                   JMP              LAB_00101651
                                                  LAB_0010163f                                                              XREF[1]:        001015ab(j)  
             0010163f  83 7d e4 01         CMP             dword ptr [RBP + local_24],0x1
            00101643  75 0c                   JNZ              LAB_00101651
            00101645  48 8d 3d ac         LEA              RDI,[s_Your_app_is_licensed_to_this_PC!_001020f8]     = "Your app is licensed to this PC!"
                              0a 00 00
             0010164c  e8 ef fa ff ff          CALL            <EXTERNAL>::puts                                                     int puts(char * __s)
                                                  LAB_00101651                                                             XREF[3]:        0010162f(j), 0010163d(j), 
                                                                                                                                                             00101643(j)  
            00101651  48 8d 3d c8         LEA              RDI,[s_read_-p_'Press_Enter_to_continue_00102120]   = "read -p 'Press Enter to continue...
                              0a 00 00
            00101658  e8 03 fb ff ff         CALL            <EXTERNAL>::system                                                  int system(char * __command)
            0010165d  b8 00 00 00         MOV            EAX,0x0
                              00
            00101662  48 8b 4d f8          MOV            RCX,qword ptr [RBP + local_10]
            00101666  64 48 33 0c         XOR             RCX,qword ptr FS:[0x28]
                              25 28 00 00 
                              00
             0010166f  74 05                   JZ                 LAB_00101676
            00101671  e8 4a fb ff ff         CALL            <EXTERNAL>::__stack_chk_fail                                    undefined __stack_chk_fail()
                                                  -- Flow Override: CALL_RETURN (CALL_TERMINATOR)
                                                  LAB_00101676                                                             XREF[1]:        0010166f(j)  
            00101676  c9                        LEAVE
            00101677  c3                        RET
            00101678  0f                         ??                 0Fh
            00101679  1f                         ??                 1Fh
             0010167a  84                        ??                 84h
            0010167b  00                        ??                 00h
             0010167c  00                        ??                 00h
            0010167d  00                        ??                 00h
             0010167e  00                        ??                 00h
             0010167f  00                        ??                 00h
                                                  *************************************************************************
                                                  *                              FUNCTION                              *
                                                  *************************************************************************
                                                  undefined __libc_csu_init()
                       undefined                 <UNASSIGN     <RETURN>
                                                  __libc_csu_init                                                              XREF[4]:        Entry Point(*), _start:0010121a(*), 
                                                                                                                                                             00102198, 001022c0(*)  
            00101680  f3 0f 1e fa            ENDBR64
            00101684  41 57                   PUSH           R15
            00101686  4c 8d 3d b3         LEA              R15,[__frame_dummy_init_array_entry]                         = 001012e0
                              26 00 00
            0010168d  41 56                   PUSH           R14
             0010168f  49 89 d6              MOV            R14,RDX
            00101692  41 55                   PUSH           R13
            00101694  49 89 f5               MOV            R13,RSI
            00101697  41 54                   PUSH           R12
            00101699  41 89 fc               MOV            R12D,EDI
             0010169c  55                        PUSH           RBP
            0010169d  48 8d 2d a4         LEA              RBP,[__do_global_dtors_aux_fini_array_entry]               = 001012a0
                              26 00 00
             001016a4  53                        PUSH           RBX
             001016a5  4c 29 fd               SUB             RBP,R15
             001016a8  48 83 ec 08         SUB             RSP,0x8
             001016ac  e8 4f f9 ff ff          CALL            _init                                                                              int _init(EVP_PKEY_CTX * ctx)
            001016b1  48 c1 fd 03          SAR              RBP,0x3
            001016b5  74 1f                    JZ                 LAB_001016d6
            001016b7  31 db                   XOR             EBX,EBX
            001016b9  0f 1f 80 00           NOP             dword ptr [RAX]
                              00 00 00
                                                  LAB_001016c0                                                             XREF[1]:        001016d4(j)  
             001016c0  4c 89 f2               MOV            RDX,R14
             001016c3  4c 89 ee              MOV            RSI,R13
             001016c6  44 89 e7              MOV            EDI,R12D
             001016c9  41 ff 14 df            CALL            qword ptr [R15 + RBX*0x8]=>->frame_dummy            undefined __do_global_dtors_aux()
                                                                                                                                                                   undefined frame_dummy()
                                                                                                                                                                   = 001012e0
                                                                                                                                                                   = 001012a0
             001016cd  48 83 c3 01         ADD             RBX,0x1
            001016d1  48 39 dd              CMP             RBP,RBX
            001016d4  75 ea                   JNZ              LAB_001016c0
                                                  LAB_001016d6                                                             XREF[1]:        001016b5(j)  
            001016d6  48 83 c4 08         ADD             RSP,0x8
             001016da  5b                        POP              RBX
            001016db  5d                        POP              RBP
             001016dc  41 5c                   POP              R12
             001016de  41 5d                   POP              R13
             001016e0  41 5e                   POP              R14
             001016e2  41 5f                    POP              R15
             001016e4  c3                        RET
             001016e5  66                        ??                 66h    f
             001016e6  66                        ??                 66h    f
             001016e7  2e                        ??                 2Eh    .
             001016e8  0f                         ??                 0Fh
             001016e9  1f                         ??                 1Fh
             001016ea  84                        ??                 84h
             001016eb  00                        ??                 00h
             001016ec  00                        ??                 00h
             001016ed  00                        ??                 00h
             001016ee  00                        ??                 00h
              001016ef  00                        ??                 00h
                                                  *************************************************************************
                                                  *                              FUNCTION                              *
                                                  *************************************************************************
                                                  undefined __libc_csu_fini()
                       undefined                 <UNASSIGN     <RETURN>
                                                  __libc_csu_fini                                                               XREF[4]:        Entry Point(*), _start:00101213(*), 
                                                                                                                                                             001021a0, 00102308(*)  
             001016f0  f3 0f 1e fa            ENDBR64
             001016f4  c3                        RET
                                                  //
                                                  // .fini 
                                                  // SHT_PROGBITS  [0x16f8 - 0x1704]
                                                  // ram:001016f8-ram:00101704
                                                  //
                                                  *************************************************************************
                                                  *                              FUNCTION                              *
                                                  *************************************************************************
                                                  undefined _fini()
                       undefined                 <UNASSIGN     <RETURN>
                                                  __DT_FINI                                                                    XREF[3]:        Entry Point(*), 00103d88(*), 
                                                  _fini                                                                                                     _elfSectionHeaders::00000450(*)  
             001016f8  f3 0f 1e fa            ENDBR64
              001016fc  48 83 ec 08         SUB             RSP,0x8
            00101700  48 83 c4 08         ADD             RSP,0x8
            00101704  c3                        RET
                                                  //
                                                  // .rodata 
                                                  // SHT_PROGBITS  [0x2000 - 0x2148]
                                                  // ram:00102000-ram:00102148
                                                  //
                                                  _IO_stdin_used                                                             XREF[3]:        Entry Point(*), 00100130(*), 
                                                                                                                                                             _elfSectionHeaders::00000490(*)  
            00102000  01 00 02 00         undefined4   00020001h
            00102004  00                        ??                 00h
            00102005  00                        ??                 00h
            00102006  00                        ??                 00h
            00102007  00                        ??                 00h
                                                  s_%08X%08X_00102008                                              XREF[1]:        main:001014c0(*)  
            00102008  25 30 38 58         ds                 "%08X%08X"
                              25 30 38 58 
                              00
                                                  DAT_00102011                                                            XREF[1]:        main:00101523(*)  
            00102011  25                        ??                 25h    %
            00102012  30                        ??                 30h    0
            00102013  32                        ??                 32h    2
            00102014  78                        ??                 78h    x
            00102015  00                        ??                 00h
                                                  s_/proc/self/exe_00102016                                           XREF[1]:        main:0010154d(*)  
            00102016  2f 70 72 6f           ds                 "/proc/self/exe"
                              63 2f 73 65 
                              6c 66 2f 6
                                                  s_user.license_00102025                                              XREF[2]:        main:00101565(*), 
                                                                                                                                                             main:00101610(*)  
            00102025  75 73 65 72         ds                 "user.license"
                              2e 6c 69 63 
                              65 6e 73 6
            00102032  00                        ??                 00h
            00102033  00                        ??                 00h
            00102034  00                        ??                 00h
            00102035  00                        ??                 00h
            00102036  00                        ??                 00h
            00102037  00                        ??                 00h
                                                  s_Welcome_to_Lab2_super_secure_pro_00102038        XREF[1]:        main:00101578(*)  
            00102038  57 65 6c 63         ds                 "Welcome to Lab2 super secure program!"
                              6f 6d 65 20 
                              74 6f 20 4
             0010205e  00                        ??                 00h
             0010205f  00                        ??                 00h
                                                  s_Your_HWID_is_%08X%08X._Enter_the_00102060     XREF[1]:        main:001015b9(*)  
            00102060  59 6f 75 72          ds                 "Your HWID is %08X%08X.\nEnter the license key: "
                              20 48 57 49 
                              44 20 69 7
                                                  DAT_0010208f                                                             XREF[1]:        main:001015d1(*)  
             0010208f  25                        ??                 25h    %
            00102090  33                        ??                 33h    3
            00102091  32                        ??                 32h    2
            00102092  73                        ??                 73h    s
            00102093  00                        ??                 00h
            00102094  00                        ??                 00h
            00102095  00                        ??                 00h
            00102096  00                        ??                 00h
            00102097  00                        ??                 00h
                                                  s_Now_you_app_is_activated!_Thanks_00102098         XREF[1]:        main:00101623(*)  
            00102098  4e 6f 77 20          ds                 "Now you app is activated! Thanks for purchasing!"
                              79 6f 75 20 
                              61 70 70 2
             001020c9  00                        ??                 00h
             001020ca  00                        ??                 00h
             001020cb  00                        ??                 00h
             001020cc  00                        ??                 00h
             001020cd  00                        ??                 00h
             001020ce  00                        ??                 00h
              001020cf  00                        ??                 00h
                                                  s_Provided_key_is_wrong!_App_is_cl_001020d0           XREF[1]:        main:00101631(*)  
            001020d0  50 72 6f 76          ds                 "Provided key is wrong! App is closing!"
                              69 64 65 64 
                              20 6b 65 7
             001020f7  00                        ??                 00h
                                                  s_Your_app_is_licensed_to_this_PC!_001020f8              XREF[1]:        main:00101645(*)  
             001020f8  59 6f 75 72          ds                 "Your app is licensed to this PC!"
                              20 61 70 70 
                              20 69 73 2
            00102119  00                        ??                 00h
             0010211a  00                        ??                 00h
            0010211b  00                        ??                 00h
             0010211c  00                        ??                 00h
            0010211d  00                        ??                 00h
             0010211e  00                        ??                 00h
             0010211f  00                        ??                 00h
                                                  s_read_-p_'Press_Enter_to_continue_00102120            XREF[1]:        main:00101651(*)  
            00102120  72 65 61 64         ds                 "read -p 'Press Enter to continue...' var"
                              20 2d 70 20 
                              27 50 72 6
                                                  //
                                                  // .eh_frame_hdr 
                                                  // SHT_PROGBITS  [0x214c - 0x21a7]
                                                  // ram:0010214c-ram:001021a7
                                                  //
                                                  *************************************************************************
                                                  * Exception Handler Frame Header                                    *
                                                  *************************************************************************
                                                  __GNU_EH_FRAME_HDR                                              XREF[2]:        00100280(*), 
                                                                                                                                                             _elfSectionHeaders::000004d0(*)  
             0010214c  01 1b 03 3b         eh_frame                                                                                           Exception Handler Frame Header Ve
            00102150  58 00 00 00         ddw              cie_001021a8                                                               Encoded eh_frame_ptr
            00102154  0a 00 00 00         ddw              Ah                                                                                 Encoded FDE count
                                                  *************************************************************************
                                                  * Frame Description Entry Table                                       *
                                                  *************************************************************************
            00102158  d4 ee ff ff             fde_table                                                                                           Initial Location
                              8c 00 00 00
            00102160  c4 ef ff ff b4         fde_table                                                                                           Initial Location
                              00 00 00
            00102168  d4 ef ff ff cc         fde_table                                                                                           Initial Location
                              00 00 00
            00102170  b4 f0 ff ff 74         fde_table                                                                                           Initial Location
                              00 00 00
            00102178  9d f1 ff ff e4         fde_table                                                                                           Initial Location
                              00 00 00
            00102180  d2 f1 ff ff 04         fde_table                                                                                           Initial Location
                              01 00 00
            00102188  4b f2 ff ff 28         fde_table                                                                                           Initial Location
                              01 00 00
            00102190  98 f2 ff ff 48         fde_table                                                                                           Initial Location
                              01 00 00
            00102198  34 f5 ff ff 6c         fde_table                                                                                           Initial Location
                              01 00 00
             001021a0  a4 f5 ff ff b4         fde_table                                                                                           Initial Location
                              01 00 00
                                                  //
                                                  // .eh_frame 
                                                  // SHT_PROGBITS  [0x21a8 - 0x2317]
                                                  // ram:001021a8-ram:00102317
                                                  //
                                                  *************************************************************************
                                                  * Common Information Entry                                           *
                                                  *************************************************************************
                                                  cie_001021a8                                                               XREF[12]:      00102150(*), 001021c4(*), 
                                                                                                                                                             001021dc(*), 00102204(*), 
                                                                                                                                                             0010221c(*), 00102234(*), 
                                                                                                                                                             00102254(*), 00102278(*), 
                                                                                                                                                             00102298(*), 001022bc(*), 
                                                                                                                                                             00102304(*), 
                                                                                                                                                             _elfSectionHeaders::00000510(*)  
             001021a8  14 00 00 00         ddw              14h                                                                               (CIE) Length
             001021ac  00 00 00 00         ddw              0h                                                                                 (CIE) ID
            001021b0  01                        db                1h                                                                                 (CIE) Version
            001021b1  7a 52 00              ds                 "zR"                                                                              (CIE) Augmentation String
            001021b4  01                        uleb128       1h                                                                                 (CIE) Code Alignment
            001021b5  78                        sleb128        -8h                                                                                (CIE) Data Alignment
            001021b6  10                        db                10h                                                                               (CIE) Return Address Register Colu
            001021b7  01                        uleb128       1h                                                                                 (CIE) Augmentation Data Length
            001021b8  1b                        dwfenc         DW_EH_PE_sdata4 | DW_EH_PE_pcrel                          (CIE Augmentation Data) FDE Enco
            001021b9  0c 07 08 90         db[7]                                                                                                 (CIE) Initial Instructions
                              01 00 00
                                                  *************************************************************************
                                                  * Frame Descriptor Entry                                              *
                                                  *************************************************************************
                                                  fde_001021c0                                                               XREF[1]:        00102174(*)  
             001021c0  14 00 00 00         ddw              14h                                                                               (FDE) Length
             001021c4  1c 00 00 00         ddw              cie_001021a8                                                               (FDE) CIE Reference Pointer 
             001021c8  38 f0 ff ff              ddw              _start                                                                            (FDE) PcBegin
             001021cc  2f 00 00 00          ddw              2Fh                                                                               (FDE) PcRange
            001021d0  00                        uleb128       0h                                                                                 (FDE) Augmentation Data Length
            001021d1  44 07 10 00         db[7]                                                                                                 (FDE) Call Frame Instructions
                              00 00 00
                                                  *************************************************************************
                                                  * Frame Descriptor Entry                                              *
                                                  *************************************************************************
                                                  fde_001021d8                                                              XREF[1]:        0010215c(*)  
            001021d8  24 00 00 00         ddw              24h                                                                               (FDE) Length
             001021dc  34 00 00 00         ddw              cie_001021a8                                                               (FDE) CIE Reference Pointer 
             001021e0  40 ee ff ff             ddw              FUN_00101020                                                            (FDE) PcBegin
             001021e4  f0 00 00 00          ddw              F0h                                                                               (FDE) PcRange
             001021e8  00                        uleb128       0h                                                                                 (FDE) Augmentation Data Length
             001021e9  0e 10 46 0e         db[23]                                                                                               (FDE) Call Frame Instructions
                              18 4a 0f 0b 
                              77 08 80 0
                                                  *************************************************************************
                                                  * Frame Descriptor Entry                                              *
                                                  *************************************************************************
                                                  fde_00102200                                                              XREF[1]:        00102164(*)  
            00102200  14 00 00 00         ddw              14h                                                                               (FDE) Length
            00102204  5c 00 00 00         ddw              cie_001021a8                                                               (FDE) CIE Reference Pointer 
            00102208  08 ef ff ff              ddw              FUN_00101110                                                            (FDE) PcBegin
             0010220c  10 00 00 00         dq                10h                                                                               (FDE) PcRange
                              00 00 00 00
            00102214  00                        uleb128       0h                                                                                 (FDE) Augmentation Data Length
            00102215  00 00 00              db[3]                                                                                                 (FDE) Call Frame Instructions
                                                  *************************************************************************
                                                  * Frame Descriptor Entry                                              *
                                                  *************************************************************************
                                                  fde_00102218                                                              XREF[1]:        0010216c(*)  
            00102218  14 00 00 00         ddw              14h                                                                               (FDE) Length
             0010221c  74 00 00 00         ddw              cie_001021a8                                                               (FDE) CIE Reference Pointer 
            00102220  00 ef ff ff              ddw              <EXTERNAL>::printf                                                   (FDE) PcBegin
            00102224  e0 00 00 00         dq                E0h                                                                               (FDE) PcRange
                              00 00 00 00
             0010222c  00                        uleb128       0h                                                                                 (FDE) Augmentation Data Length
            0010222d  00 00 00              db[3]                                                                                                 (FDE) Call Frame Instructions
                                                  *************************************************************************
                                                  * Frame Descriptor Entry                                              *
                                                  *************************************************************************
                                                  fde_00102230                                                              XREF[1]:        0010217c(*)  
            00102230  1c 00 00 00         ddw              1Ch                                                                               (FDE) Length
            00102234  8c 00 00 00         ddw              cie_001021a8                                                               (FDE) CIE Reference Pointer 
            00102238  b1 f0 ff ff              ddw              __get_cpuid_max                                                           (FDE) PcBegin
             0010223c  35 00 00 00         ddw              35h                                                                               (FDE) PcRange
            00102240  00                        uleb128       0h                                                                                 (FDE) Augmentation Data Length
            00102241  41 0e 10 86         db[15]                                                                                               (FDE) Call Frame Instructions
                              02 43 0d 06 
                              41 83 03 6
                                                  *************************************************************************
                                                  * Frame Descriptor Entry                                              *
                                                  *************************************************************************
                                                  fde_00102250                                                              XREF[1]:        00102184(*)  
            00102250  20 00 00 00         ddw              20h                                                                               (FDE) Length
            00102254  ac 00 00 00         ddw              cie_001021a8                                                               (FDE) CIE Reference Pointer 
            00102258  c6 f0 ff ff              ddw              __get_cpuid                                                                   (FDE) PcBegin
             0010225c  79 00 00 00         ddw              79h                                                                               (FDE) PcRange
            00102260  00                        uleb128       0h                                                                                 (FDE) Augmentation Data Length
            00102261  41 0e 10 86         db[19]                                                                                               (FDE) Call Frame Instructions
                              02 43 0d 06 
                              45 83 03 0
                                                  *************************************************************************
                                                  * Frame Descriptor Entry                                              *
                                                  *************************************************************************
                                                  fde_00102274                                                              XREF[1]:        0010218c(*)  
            00102274  1c 00 00 00         ddw              1Ch                                                                               (FDE) Length
            00102278  d0 00 00 00         ddw              cie_001021a8                                                               (FDE) CIE Reference Pointer 
             0010227c  1b f1 ff ff              ddw              calc_md5                                                                       (FDE) PcBegin
            00102280  4d 00 00 00         ddw              4Dh                                                                               (FDE) PcRange
            00102284  00                        uleb128       0h                                                                                 (FDE) Augmentation Data Length
            00102285  45 0e 10 86         db[15]                                                                                               (FDE) Call Frame Instructions
                              02 43 0d 06 
                              02 44 0c 0
                                                  *************************************************************************
                                                  * Frame Descriptor Entry                                              *
                                                  *************************************************************************
                                                  fde_00102294                                                              XREF[1]:        00102194(*)  
            00102294  20 00 00 00         ddw              20h                                                                               (FDE) Length
            00102298  f0 00 00 00          ddw              cie_001021a8                                                               (FDE) CIE Reference Pointer 
             0010229c  48 f1 ff ff              ddw              main                                                                              (FDE) PcBegin
             001022a0  94 02 00 00         ddw              294h                                                                             (FDE) PcRange
             001022a4  00                        uleb128       0h                                                                                 (FDE) Augmentation Data Length
             001022a5  45 0e 10 86         db[19]                                                                                               (FDE) Call Frame Instructions
                              02 43 0d 06 
                              03 8b 02 0
                                                  *************************************************************************
                                                  * Frame Descriptor Entry                                              *
                                                  *************************************************************************
                                                  fde_001022b8                                                              XREF[1]:        0010219c(*)  
            001022b8  44 00 00 00         ddw              44h                                                                               (FDE) Length
             001022bc  14 01 00 00         ddw              cie_001021a8                                                               (FDE) CIE Reference Pointer 
             001022c0  c0 f3 ff ff              ddw              __libc_csu_init                                                               (FDE) PcBegin
             001022c4  65 00 00 00         ddw              65h                                                                               (FDE) PcRange
             001022c8  00                        uleb128       0h                                                                                 (FDE) Augmentation Data Length
             001022c9  46 0e 10 8f          db[55]                                                                                               (FDE) Call Frame Instructions
                              02 49 0e 18 
                              8e 03 45 0
                                                  *************************************************************************
                                                  * Frame Descriptor Entry                                              *
                                                  *************************************************************************
                                                  fde_00102300                                                              XREF[1]:        001021a4(*)  
            00102300  10 00 00 00         ddw              10h                                                                               (FDE) Length
            00102304  5c 01 00 00         ddw              cie_001021a8                                                               (FDE) CIE Reference Pointer 
            00102308  e8 f3 ff ff              ddw              __libc_csu_fini                                                               (FDE) PcBegin
             0010230c  05 00 00 00         dq                5h                                                                                 (FDE) PcRange
                              00 00 00 00
                                                  *************************************************************************
                                                  * END OF FRAME                                                     *
                                                  *************************************************************************
                                                  __FRAME_END__
            00102314  00 00 00 00         ddw              0h                                                                                 End of Frame
                                                  //
                                                  // .init_array 
                                                  // SHT_INIT_ARRAY  [0x3d40 - 0x3d47]
                                                  // ram:00103d40-ram:00103d47
                                                  //
                                                  __DT_INIT_ARRAY                                                        XREF[6]:        00100168(*), 001002f0(*), 
                                                  __init_array_start                                                                                __libc_csu_init:00101686(*), 
                                                  __frame_dummy_init_array_entry                                                        __libc_csu_init:001016c9(R), 
                                                                                                                                                             00103d98(*), 
                                                                                                                                                             _elfSectionHeaders::00000550(*)  
            00103d40  e0 12 10 00         addr             frame_dummy
                              00 00 00 00
                                                  //
                                                  // .fini_array 
                                                  // SHT_FINI_ARRAY  [0x3d48 - 0x3d4f]
                                                  // ram:00103d48-ram:00103d4f
                                                  //
                                                  __DT_FINI_ARRAY                                                        XREF[4]:        __libc_csu_init:0010169d(*), 
                                                  __init_array_end                                                                                  __libc_csu_init:001016c9(R), 
                                                  __do_global_dtors_aux_fini_array_entry                                               00103db8(*), 
                                                                                                                                                             _elfSectionHeaders::00000590(*)  
            00103d48  a0 12 10 00         addr             __do_global_dtors_aux
                              00 00 00 00
                                                  //
                                                  // .dynamic 
                                                  // SHT_DYNAMIC  [0x3d50 - 0x3f4f]
                                                  // ram:00103d50-ram:00103f4f
                                                  //
                                                  _DYNAMIC                                                                   XREF[3]:        001001a0(*), 00103f50(*), 
                                                                                                                                                             _elfSectionHeaders::000005d0(*)  
            00103d50  01 00 00 00         Elf64_Dy                                                                                           DT_NEEDED - Name of needed library
                              00 00 00 00 
                              01 00 00 0
             00103f10  00                        ??                 00h
             00103f11  00                        ??                 00h
             00103f12  00                        ??                 00h
             00103f13  00                        ??                 00h
             00103f14  00                        ??                 00h
             00103f15  00                        ??                 00h
             00103f16  00                        ??                 00h
             00103f17  00                        ??                 00h
             00103f18  00                        ??                 00h
             00103f19  00                        ??                 00h
              00103f1a  00                        ??                 00h
             00103f1b  00                        ??                 00h
              00103f1c  00                        ??                 00h
             00103f1d  00                        ??                 00h
              00103f1e  00                        ??                 00h
              00103f1f  00                        ??                 00h
             00103f20  00                        ??                 00h
             00103f21  00                        ??                 00h
             00103f22  00                        ??                 00h
             00103f23  00                        ??                 00h
             00103f24  00                        ??                 00h
             00103f25  00                        ??                 00h
             00103f26  00                        ??                 00h
             00103f27  00                        ??                 00h
             00103f28  00                        ??                 00h
             00103f29  00                        ??                 00h
              00103f2a  00                        ??                 00h
             00103f2b  00                        ??                 00h
              00103f2c  00                        ??                 00h
             00103f2d  00                        ??                 00h
              00103f2e  00                        ??                 00h
              00103f2f  00                        ??                 00h
             00103f30  00                        ??                 00h
             00103f31  00                        ??                 00h
             00103f32  00                        ??                 00h
             00103f33  00                        ??                 00h
             00103f34  00                        ??                 00h
             00103f35  00                        ??                 00h
             00103f36  00                        ??                 00h
             00103f37  00                        ??                 00h
             00103f38  00                        ??                 00h
             00103f39  00                        ??                 00h
              00103f3a  00                        ??                 00h
             00103f3b  00                        ??                 00h
              00103f3c  00                        ??                 00h
             00103f3d  00                        ??                 00h
              00103f3e  00                        ??                 00h
              00103f3f  00                        ??                 00h
             00103f40  00                        ??                 00h
             00103f41  00                        ??                 00h
             00103f42  00                        ??                 00h
             00103f43  00                        ??                 00h
             00103f44  00                        ??                 00h
             00103f45  00                        ??                 00h
             00103f46  00                        ??                 00h
             00103f47  00                        ??                 00h
             00103f48  00                        ??                 00h
             00103f49  00                        ??                 00h
              00103f4a  00                        ??                 00h
             00103f4b  00                        ??                 00h
              00103f4c  00                        ??                 00h
             00103f4d  00                        ??                 00h
              00103f4e  00                        ??                 00h
              00103f4f  00                        ??                 00h
                                                  //
                                                  // .got 
                                                  // SHT_PROGBITS  [0x3f50 - 0x3fff]
                                                  // ram:00103f50-ram:00103fff
                                                  //
                                                  __DT_PLTGOT                                                               XREF[2]:        00103e38(*), 
                                                  _GLOBAL_OFFSET_TABLE_                                                                _elfSectionHeaders::00000610(*)  
             00103f50  50 3d 10 00         addr             _DYNAMIC
                              00 00 00 00
                                                  PTR_00103f58                                                              XREF[1]:        FUN_00101020:00101020(R)  
             00103f58  00 00 00 00         addr             00000000
                              00 00 00 00
                                                  PTR_00103f60                                                              XREF[1]:        FUN_00101020:00101026  
             00103f60  00 00 00 00         addr             00000000
                              00 00 00 00
                                                  PTR_printf_00103f68                                                    XREF[1]:        printf:00101124  
             00103f68  00 70 10 00         addr             <EXTERNAL>::printf                                                   = ??
                              00 00 00 00
                                                  PTR_snprintf_00103f70                                                XREF[1]:        snprintf:00101134  
             00103f70  08 70 10 00         addr             <EXTERNAL>::snprintf                                                = ??
                              00 00 00 00
                                                  PTR_puts_00103f78                                                      XREF[1]:        puts:00101144  
             00103f78  18 70 10 00         addr             <EXTERNAL>::puts                                                     = ??
                              00 00 00 00
                                                  PTR_strncmp_00103f80                                                XREF[1]:        strncmp:00101154  
             00103f80  20 70 10 00         addr             <EXTERNAL>::strncmp                                               = ??
                              00 00 00 00
                                                  PTR_system_00103f88                                                  XREF[1]:        system:00101164  
             00103f88  30 70 10 00         addr             <EXTERNAL>::system                                                  = ??
                              00 00 00 00
                                                  PTR_MD5_Final_00103f90                                            XREF[1]:        MD5_Final:00101174  
             00103f90  48 70 10 00         addr             <EXTERNAL>::MD5_Final                                           = ??
                              00 00 00 00
                                                  PTR_MD5_Update_00103f98                                        XREF[1]:        MD5_Update:00101184  
             00103f98  50 70 10 00         addr             <EXTERNAL>::MD5_Update                                        = ??
                              00 00 00 00
                                                  PTR_sprintf_00103fa0                                                  XREF[1]:        sprintf:00101194  
              00103fa0  58 70 10 00         addr             <EXTERNAL>::sprintf                                                  = ??
                              00 00 00 00
                                                  PTR_setxattr_00103fa8                                                 XREF[1]:        setxattr:001011a4  
              00103fa8  60 70 10 00         addr             <EXTERNAL>::setxattr                                                = ??
                              00 00 00 00
                                                  PTR_readlink_00103fb0                                                XREF[1]:        readlink:001011b4  
             00103fb0  68 70 10 00         addr             <EXTERNAL>::readlink                                               = ??
                              00 00 00 00
                                                  PTR___stack_chk_fail_00103fb8                                    XREF[1]:        __stack_chk_fail:001011c4  
             00103fb8  70 70 10 00         addr             <EXTERNAL>::__stack_chk_fail                                    = ??
                              00 00 00 00
                                                  PTR_getxattr_00103fc0                                                XREF[1]:        getxattr:001011d4  
              00103fc0  78 70 10 00         addr             <EXTERNAL>::getxattr                                                = ??
                              00 00 00 00
                                                  PTR_MD5_Init_00103fc8                                              XREF[1]:        MD5_Init:001011e4  
              00103fc8  80 70 10 00         addr             <EXTERNAL>::MD5_Init                                              = ??
                              00 00 00 00
                                                  PTR___isoc99_scanf_00103fd0                                      XREF[1]:        __isoc99_scanf:001011f4  
             00103fd0  88 70 10 00         addr             <EXTERNAL>::__isoc99_scanf                                      = ??
                              00 00 00 00
                                                  PTR___gmon_start___00103fd8                                     XREF[1]:        _init:00101008(R)  
             00103fd8  10 70 10 00         addr             <EXTERNAL>::__gmon_start__                                     = ??
                              00 00 00 00
                                                  PTR___libc_start_main_00103fe0                                  XREF[1]:        _start:00101228(R)  
              00103fe0  28 70 10 00         addr             <EXTERNAL>::__libc_start_main                                  = ??
                              00 00 00 00
                                                  PTR__ITM_deregisterTMCloneTable_00103fe8             XREF[1]:        deregister_tm_clones:00101243(R)  
              00103fe8  38 70 10 00         addr             <EXTERNAL>::_ITM_deregisterTMCloneTable             = ??
                              00 00 00 00
                                                  PTR__ITM_registerTMCloneTable_00103ff0                  XREF[1]:        register_tm_clones:00101284(R)  
              00103ff0  40 70 10 00         addr             <EXTERNAL>::_ITM_registerTMCloneTable                = ??
                              00 00 00 00
                                                  PTR___cxa_finalize_00103ff8                                         XREF[2]:        FUN_00101110:00101114, 
                                                                                                                                                             __do_global_dtors_aux:001012ae(R)  
              00103ff8  90 70 10 00         addr             <EXTERNAL>::__cxa_finalize                                       = ??
                              00 00 00 00
                                                  //
                                                  // .data 
                                                  // SHT_PROGBITS  [0x4000 - 0x400f]
                                                  // ram:00104000-ram:0010400f
                                                  //
                                                  __data_start                                                                  XREF[2]:        Entry Point(*), 
                                                  data_start                                                                                            _elfSectionHeaders::00000650(*)  
            00104000  00                        ??                 00h
            00104001  00                        ??                 00h
            00104002  00                        ??                 00h
            00104003  00                        ??                 00h
            00104004  00                        ??                 00h
            00104005  00                        ??                 00h
            00104006  00                        ??                 00h
            00104007  00                        ??                 00h
                                                  __dso_handle                                                                XREF[3]:        Entry Point(*), 
                                                                                                                                                             __do_global_dtors_aux:001012bb(R), 
                                                                                                                                                             00104008(*)  
            00104008  08 40 10 00         addr             __dso_handle                                                                 = 00104008
                              00 00 00 00
                                                  //
                                                  // .bss 
                                                  // SHT_NOBITS  [0x4020 - 0x613f]
                                                  // ram:00104020-ram:0010613f
                                                  //
                                                  completed.8061                                                            XREF[3]:        __do_global_dtors_aux:001012a4(R), 
                                                                                                                                                             __do_global_dtors_aux:001012cc(W), 
                                                                                                                                                             _elfSectionHeaders::00000690(*)  
            00104020                             undefined1   ??
            00104021                             ??                 ??
            00104022                             ??                 ??
            00104023                             ??                 ??
            00104024                             ??                 ??
            00104025                             ??                 ??
            00104026                             ??                 ??
            00104027                             ??                 ??
            00104028                             ??                 ??
            00104029                             ??                 ??
             0010402a                             ??                 ??
            0010402b                             ??                 ??
             0010402c                             ??                 ??
            0010402d                             ??                 ??
             0010402e                             ??                 ??
             0010402f                             ??                 ??
            00104030                             ??                 ??
            00104031                             ??                 ??
            00104032                             ??                 ??
            00104033                             ??                 ??
            00104034                             ??                 ??
            00104035                             ??                 ??
            00104036                             ??                 ??
            00104037                             ??                 ??
            00104038                             ??                 ??
            00104039                             ??                 ??
             0010403a                             ??                 ??
            0010403b                             ??                 ??
             0010403c                             ??                 ??
            0010403d                             ??                 ??
             0010403e                             ??                 ??
             0010403f                             ??                 ??
                                                  xattrValue                                                                    XREF[3]:        Entry Point(*), main:0010155e(*), 
                                                                                                                                                             main:00101589(*)  
            00104040                             undefine       ??
                                                  md5decode                                                                   XREF[5]:        Entry Point(*), main:00101517(*), 
                                                                                                                                                             main:00101590(*), 
                                                                                                                                                             main:001015ee(*), 
                                                                                                                                                             main:00101609(*)  
            00105040                             undefine       ??
                 00105040                             undefined1??                                        [0]                                                        XREF[5]:        Entry Point(*), main:00101517(*), 
                                                                                                                                                                                                             main:00101590(*), 
                                                                                                                                                                                                             main:001015ee(*), 
                                                                                                                                                                                                             main:00101609(*)  
                 00105041                             undefined1??                                        [1]
                 00105042                             undefined1??                                        [2]
                 00105043                             undefined1??                                        [3]
                 00105044                             undefined1??                                        [4]
                 00105045                             undefined1??                                        [5]
                 00105046                             undefined1??                                        [6]
                 00105047                             undefined1??                                        [7]
                 00105048                             undefined1??                                        [8]
                 00105049                             undefined1??                                        [9]
                  0010504a                             undefined1??                                        [10]
                 0010504b                             undefined1??                                        [11]
                  0010504c                             undefined1??                                        [12]
                 0010504d                             undefined1??                                        [13]
                  0010504e                             undefined1??                                        [14]
                  0010504f                             undefined1??                                        [15]
                 00105050                             undefined1??                                        [16]
                 00105051                             undefined1??                                        [17]
                 00105052                             undefined1??                                        [18]
                 00105053                             undefined1??                                        [19]
                 00105054                             undefined1??                                        [20]
                 00105055                             undefined1??                                        [21]
                 00105056                             undefined1??                                        [22]
                 00105057                             undefined1??                                        [23]
                 00105058                             undefined1??                                        [24]
                 00105059                             undefined1??                                        [25]
                  0010505a                             undefined1??                                        [26]
                 0010505b                             undefined1??                                        [27]
                  0010505c                             undefined1??                                        [28]
                 0010505d                             undefined1??                                        [29]
                  0010505e                             undefined1??                                        [30]
                  0010505f                             undefined1??                                        [31]
                 00105060                             undefined1??                                        [32]
            00105061                             ??                 ??
            00105062                             ??                 ??
            00105063                             ??                 ??
            00105064                             ??                 ??
            00105065                             ??                 ??
            00105066                             ??                 ??
            00105067                             ??                 ??
            00105068                             ??                 ??
            00105069                             ??                 ??
             0010506a                             ??                 ??
            0010506b                             ??                 ??
             0010506c                             ??                 ??
            0010506d                             ??                 ??
             0010506e                             ??                 ??
             0010506f                             ??                 ??
                                                  md5digest                                                                    XREF[4]:        Entry Point(*), 
                                                                                                                                                             calc_md5:001013d5(*), 
                                                                                                                                                             main:00101501(*), 
                                                                                                                                                             main:00101508(*)  
            00105070                             undefine       ??
                                                  binaryPath                                                                    XREF[4]:        Entry Point(*), main:00101546(*), 
                                                                                                                                                             main:0010156c(*), 
                                                                                                                                                             main:00101617(*)  
            00105080                             undefine       ??
                                                  userInput                                                                     XREF[3]:        Entry Point(*), main:001015ca(*), 
                                                                                                                                                             main:001015e7(*)  
            00106080                             undefine       ??
             001060a1                             ??                 ??
             001060a2                             ??                 ??
             001060a3                             ??                 ??
             001060a4                             ??                 ??
             001060a5                             ??                 ??
             001060a6                             ??                 ??
             001060a7                             ??                 ??
             001060a8                             ??                 ??
             001060a9                             ??                 ??
             001060aa                             ??                 ??
             001060ab                             ??                 ??
             001060ac                             ??                 ??
             001060ad                             ??                 ??
             001060ae                             ??                 ??
              001060af                             ??                 ??
                                                  PSN                                                                              XREF[3]:        Entry Point(*), main:001014cc(*), 
                                                                                                                                                             main:001014e2(*)  
            001060b0                             undefine       ??
             001060c1                             ??                 ??
             001060c2                             ??                 ??
             001060c3                             ??                 ??
             001060c4                             ??                 ??
             001060c5                             ??                 ??
             001060c6                             ??                 ??
             001060c7                             ??                 ??
             001060c8                             ??                 ??
             001060c9                             ??                 ??
             001060ca                             ??                 ??
             001060cb                             ??                 ??
             001060cc                             ??                 ??
             001060cd                             ??                 ??
             001060ce                             ??                 ??
              001060cf                             ??                 ??
            001060d0                             ??                 ??
            001060d1                             ??                 ??
            001060d2                             ??                 ??
            001060d3                             ??                 ??
            001060d4                             ??                 ??
            001060d5                             ??                 ??
            001060d6                             ??                 ??
            001060d7                             ??                 ??
            001060d8                             ??                 ??
            001060d9                             ??                 ??
             001060da                             ??                 ??
            001060db                             ??                 ??
             001060dc                             ??                 ??
            001060dd                             ??                 ??
             001060de                             ??                 ??
             001060df                             ??                 ??
                                                  md5handler                                                                  XREF[4]:        Entry Point(*), 
                                                                                                                                                             calc_md5:001013ab(*), 
                                                                                                                                                             calc_md5:001013c2(*), 
                                                                                                                                                             calc_md5:001013ce(*)  
             001060e0                             undefine       ??
             0010613c                             ??                 ??
            0010613d                             ??                 ??
             0010613e                             ??                 ??
             0010613f                             ??                 ??
                                                  //
                                                  // EXTERNAL 
                                                  // NOTE: This block is artificial and allows ELF Relocations to work c
                                                  // ram:00107000-ram:00107097
                                                  //
                                                  *************************************************************************
                                                  *                         THUNK FUNCTION                          *
                                                  *************************************************************************
                                                  thunk int printf(char * __format, ...)
                                                       Thunked-Function: <EXTERNAL>::printf
                       int                            EAX:4                <RETURN>
                       char *                       RDI:8                 __format
                                                  printf@@GLIBC_2.2.5
                                                  <EXTERNAL>::printf                                                   XREF[2]:        printf:00101120(T), 
                                                                                                                                                             printf:00101124(c), 00103f68(*)  
            00107000                             ??                 ??
            00107001                             ??                 ??
            00107002                             ??                 ??
            00107003                             ??                 ??
            00107004                             ??                 ??
            00107005                             ??                 ??
            00107006                             ??                 ??
            00107007                             ??                 ??
                                                  *************************************************************************
                                                  *                         THUNK FUNCTION                          *
                                                  *************************************************************************
                                                  thunk int snprintf(char * __s, size_t __maxlen, char * __format, ...)
                                                       Thunked-Function: <EXTERNAL>::snprintf
                       int                            EAX:4                <RETURN>
                       char *                       RDI:8                 __s
                       size_t                        RSI:8                 __maxlen
                       char *                       RDX:8                __format
                                                  snprintf@@GLIBC_2.2.5
                                                  <EXTERNAL>::snprintf                                               XREF[2]:        snprintf:00101130(T), 
                                                                                                                                                             snprintf:00101134(c), 00103f70(*)  
            00107008                             ??                 ??
            00107009                             ??                 ??
             0010700a                             ??                 ??
            0010700b                             ??                 ??
             0010700c                             ??                 ??
            0010700d                             ??                 ??
             0010700e                             ??                 ??
             0010700f                             ??                 ??
                                                  *************************************************************************
                                                  *                         THUNK FUNCTION                          *
                                                  *************************************************************************
                                                  thunk undefined __gmon_start__()
                                                       Thunked-Function: <EXTERNAL>::__gmon_st
                       undefined                 <UNASSIGN     <RETURN>
                                                  <EXTERNAL>::__gmon_start__                                    XREF[3]:        _init:00101008(*), _init:00101014(c), 
                                                                                                                                                             00103fd8(*)  
            00107010                             ??                 ??
            00107011                             ??                 ??
            00107012                             ??                 ??
            00107013                             ??                 ??
            00107014                             ??                 ??
            00107015                             ??                 ??
            00107016                             ??                 ??
            00107017                             ??                 ??
                                                  *************************************************************************
                                                  *                         THUNK FUNCTION                          *
                                                  *************************************************************************
                                                  thunk int puts(char * __s)
                                                       Thunked-Function: <EXTERNAL>::puts
                       int                            EAX:4                <RETURN>
                       char *                       RDI:8                 __s
                                                  puts@@GLIBC_2.2.5
                                                  <EXTERNAL>::puts                                                     XREF[2]:        puts:00101140(T), 
                                                                                                                                                             puts:00101144(c), 00103f78(*)  
            00107018                             ??                 ??
            00107019                             ??                 ??
             0010701a                             ??                 ??
            0010701b                             ??                 ??
             0010701c                             ??                 ??
            0010701d                             ??                 ??
             0010701e                             ??                 ??
             0010701f                             ??                 ??
                                                  *************************************************************************
                                                  *                         THUNK FUNCTION                          *
                                                  *************************************************************************
                                                  thunk int strncmp(char * __s1, char * __s2, size_t __n)
                                                       Thunked-Function: <EXTERNAL>::strncmp
                       int                            EAX:4                <RETURN>
                       char *                       RDI:8                 __s1
                       char *                       RSI:8                 __s2
                       size_t                        RDX:8                __n
                                                  strncmp@@GLIBC_2.2.5
                                                  <EXTERNAL>::strncmp                                               XREF[2]:        strncmp:00101150(T), 
                                                                                                                                                             strncmp:00101154(c), 00103f80(*)  
            00107020                             ??                 ??
            00107021                             ??                 ??
            00107022                             ??                 ??
            00107023                             ??                 ??
            00107024                             ??                 ??
            00107025                             ??                 ??
            00107026                             ??                 ??
            00107027                             ??                 ??
                                                  *************************************************************************
                                                  *                         THUNK FUNCTION                          *
                                                  *************************************************************************
                                                  thunk undefined __libc_start_main()
                                                       Thunked-Function: <EXTERNAL>::__libc_star
                       undefined                 <UNASSIGN     <RETURN>
                                                  __libc_start_main@@GLIBC_2.2.5
                                                  <EXTERNAL>::__libc_start_main                                 XREF[2]:        _start:00101228(c), 00103fe0(*)  
            00107028                             ??                 ??
            00107029                             ??                 ??
             0010702a                             ??                 ??
            0010702b                             ??                 ??
             0010702c                             ??                 ??
            0010702d                             ??                 ??
             0010702e                             ??                 ??
             0010702f                             ??                 ??
                                                  *************************************************************************
                                                  *                         THUNK FUNCTION                          *
                                                  *************************************************************************
                                                  thunk int system(char * __command)
                                                       Thunked-Function: <EXTERNAL>::system
                       int                            EAX:4                <RETURN>
                       char *                       RDI:8                 __command
                                                  system@@GLIBC_2.2.5
                                                  <EXTERNAL>::system                                                 XREF[2]:        system:00101160(T), 
                                                                                                                                                             system:00101164(c), 00103f88(*)  
            00107030                             ??                 ??
            00107031                             ??                 ??
            00107032                             ??                 ??
            00107033                             ??                 ??
            00107034                             ??                 ??
            00107035                             ??                 ??
            00107036                             ??                 ??
            00107037                             ??                 ??
                                                  *************************************************************************
                                                  *                         THUNK FUNCTION                          *
                                                  *************************************************************************
                                                  thunk undefined _ITM_deregisterTMCloneTable()
                                                       Thunked-Function: <EXTERNAL>::_ITM_dere
                       undefined                 <UNASSIGN     <RETURN>
                                                  <EXTERNAL>::_ITM_deregisterTMCloneTable            XREF[3]:        deregister_tm_clones:00101243(*), 
                                                                                                                                                             deregister_tm_clones:0010124f(c), 
                                                                                                                                                             00103fe8(*)  
            00107038                             ??                 ??
            00107039                             ??                 ??
             0010703a                             ??                 ??
            0010703b                             ??                 ??
             0010703c                             ??                 ??
            0010703d                             ??                 ??
             0010703e                             ??                 ??
             0010703f                             ??                 ??
                                                  *************************************************************************
                                                  *                         THUNK FUNCTION                          *
                                                  *************************************************************************
                                                  thunk undefined _ITM_registerTMCloneTable()
                                                       Thunked-Function: <EXTERNAL>::_ITM_regi
                       undefined                 <UNASSIGN     <RETURN>
                                                  <EXTERNAL>::_ITM_registerTMCloneTable                XREF[3]:        register_tm_clones:00101284(*), 
                                                                                                                                                             register_tm_clones:00101290(c), 
                                                                                                                                                             00103ff0(*)  
            00107040                             ??                 ??
            00107041                             ??                 ??
            00107042                             ??                 ??
            00107043                             ??                 ??
            00107044                             ??                 ??
            00107045                             ??                 ??
            00107046                             ??                 ??
            00107047                             ??                 ??
                                                  *************************************************************************
                                                  *                         THUNK FUNCTION                          *
                                                  *************************************************************************
                                                  thunk int MD5_Final(uchar * md, MD5_CTX * c)
                                                       Thunked-Function: <EXTERNAL>::MD5_Final
                       int                            EAX:4                <RETURN>
                       uchar *                     RDI:8                 md
                       MD5_CTX *              RSI:8                 c
                                                  MD5_Final@@OPENSSL_1_1_0
                                                  <EXTERNAL>::MD5_Final                                           XREF[2]:        MD5_Final:00101170(T), 
                                                                                                                                                             MD5_Final:00101174(c), 
                                                                                                                                                             00103f90(*)  
            00107048                             ??                 ??
            00107049                             ??                 ??
             0010704a                             ??                 ??
            0010704b                             ??                 ??
             0010704c                             ??                 ??
            0010704d                             ??                 ??
             0010704e                             ??                 ??
             0010704f                             ??                 ??
                                                  *************************************************************************
                                                  *                         THUNK FUNCTION                          *
                                                  *************************************************************************
                                                  thunk int MD5_Update(MD5_CTX * c, void * data, size_t len)
                                                       Thunked-Function: <EXTERNAL>::MD5_Upd
                       int                            EAX:4                <RETURN>
                       MD5_CTX *              RDI:8                 c
                       void *                       RSI:8                 data
                       size_t                        RDX:8                len
                                                  MD5_Update@@OPENSSL_1_1_0
                                                  <EXTERNAL>::MD5_Update                                       XREF[2]:        MD5_Update:00101180(T), 
                                                                                                                                                             MD5_Update:00101184(c), 
                                                                                                                                                             00103f98(*)  
            00107050                             ??                 ??
            00107051                             ??                 ??
            00107052                             ??                 ??
            00107053                             ??                 ??
            00107054                             ??                 ??
            00107055                             ??                 ??
            00107056                             ??                 ??
            00107057                             ??                 ??
                                                  *************************************************************************
                                                  *                         THUNK FUNCTION                          *
                                                  *************************************************************************
                                                  thunk int sprintf(char * __s, char * __format, ...)
                                                       Thunked-Function: <EXTERNAL>::sprintf
                       int                            EAX:4                <RETURN>
                       char *                       RDI:8                 __s
                       char *                       RSI:8                 __format
                                                  sprintf@@GLIBC_2.2.5
                                                  <EXTERNAL>::sprintf                                                 XREF[2]:        sprintf:00101190(T), 
                                                                                                                                                             sprintf:00101194(c), 00103fa0(*)  
            00107058                             ??                 ??
            00107059                             ??                 ??
             0010705a                             ??                 ??
            0010705b                             ??                 ??
             0010705c                             ??                 ??
            0010705d                             ??                 ??
             0010705e                             ??                 ??
             0010705f                             ??                 ??
                                                  *************************************************************************
                                                  *                         THUNK FUNCTION                          *
                                                  *************************************************************************
                                                  thunk int setxattr(char * __path, char * __name, void * __value, s
                                                       Thunked-Function: <EXTERNAL>::setxattr
                       int                            EAX:4                <RETURN>
                       char *                       RDI:8                 __path
                       char *                       RSI:8                 __name
                       void *                       RDX:8                __value
                       size_t                        RCX:8                __size
                       int                            R8D:4                __flags
                                                  setxattr@@GLIBC_2.3
                                                  <EXTERNAL>::setxattr                                                XREF[2]:        setxattr:001011a0(T), 
                                                                                                                                                             setxattr:001011a4(c), 00103fa8(*)  
            00107060                             ??                 ??
            00107061                             ??                 ??
            00107062                             ??                 ??
            00107063                             ??                 ??
            00107064                             ??                 ??
            00107065                             ??                 ??
            00107066                             ??                 ??
            00107067                             ??                 ??
                                                  *************************************************************************
                                                  *                         THUNK FUNCTION                          *
                                                  *************************************************************************
                                                  thunk ssize_t readlink(char * __path, char * __buf, size_t __len)
                                                       Thunked-Function: <EXTERNAL>::readlink
                       ssize_t                      RAX:8                <RETURN>
                       char *                       RDI:8                 __path
                       char *                       RSI:8                 __buf
                       size_t                        RDX:8                __len
                                                  readlink@@GLIBC_2.2.5
                                                  <EXTERNAL>::readlink                                               XREF[2]:        readlink:001011b0(T), 
                                                                                                                                                             readlink:001011b4(c), 00103fb0(*)  
            00107068                             ??                 ??
            00107069                             ??                 ??
             0010706a                             ??                 ??
            0010706b                             ??                 ??
             0010706c                             ??                 ??
            0010706d                             ??                 ??
             0010706e                             ??                 ??
             0010706f                             ??                 ??
                                                  *************************************************************************
                                                  *                         THUNK FUNCTION                          *
                                                  *************************************************************************
                                                  thunk noreturn undefined __stack_chk_fail()
                                                       Thunked-Function: <EXTERNAL>::__stack_ch
                       undefined                 <UNASSIGN     <RETURN>
                                                  __stack_chk_fail@@GLIBC_2.4
                                                  <EXTERNAL>::__stack_chk_fail                                   XREF[2]:        __stack_chk_fail:001011c0(T), 
                                                                                                                                                             __stack_chk_fail:001011c4(c), 
                                                                                                                                                             00103fb8(*)  
            00107070                             ??                 ??
            00107071                             ??                 ??
            00107072                             ??                 ??
            00107073                             ??                 ??
            00107074                             ??                 ??
            00107075                             ??                 ??
            00107076                             ??                 ??
            00107077                             ??                 ??
                                                  *************************************************************************
                                                  *                         THUNK FUNCTION                          *
                                                  *************************************************************************
                                                  thunk ssize_t getxattr(char * __path, char * __name, void * __val
                                                       Thunked-Function: <EXTERNAL>::getxattr
                       ssize_t                      RAX:8                <RETURN>
                       char *                       RDI:8                 __path
                       char *                       RSI:8                 __name
                       void *                       RDX:8                __value
                       size_t                        RCX:8                __size
                                                  getxattr@@GLIBC_2.3
                                                  <EXTERNAL>::getxattr                                               XREF[2]:        getxattr:001011d0(T), 
                                                                                                                                                             getxattr:001011d4(c), 00103fc0(*)  
            00107078                             ??                 ??
            00107079                             ??                 ??
             0010707a                             ??                 ??
            0010707b                             ??                 ??
             0010707c                             ??                 ??
            0010707d                             ??                 ??
             0010707e                             ??                 ??
             0010707f                             ??                 ??
                                                  *************************************************************************
                                                  *                         THUNK FUNCTION                          *
                                                  *************************************************************************
                                                  thunk int MD5_Init(MD5_CTX * c)
                                                       Thunked-Function: <EXTERNAL>::MD5_Init
                       int                            EAX:4                <RETURN>
                       MD5_CTX *              RDI:8                 c
                                                  MD5_Init@@OPENSSL_1_1_0
                                                  <EXTERNAL>::MD5_Init                                             XREF[2]:        MD5_Init:001011e0(T), 
                                                                                                                                                             MD5_Init:001011e4(c), 00103fc8(*)  
            00107080                             ??                 ??
            00107081                             ??                 ??
            00107082                             ??                 ??
            00107083                             ??                 ??
            00107084                             ??                 ??
            00107085                             ??                 ??
            00107086                             ??                 ??
            00107087                             ??                 ??
                                                  *************************************************************************
                                                  *                         THUNK FUNCTION                          *
                                                  *************************************************************************
                                                  thunk undefined __isoc99_scanf()
                                                       Thunked-Function: <EXTERNAL>::__isoc99_s
                       undefined                 <UNASSIGN     <RETURN>
                                                  __isoc99_scanf@@GLIBC_2.7
                                                  <EXTERNAL>::__isoc99_scanf                                     XREF[2]:        __isoc99_scanf:001011f0(T), 
                                                                                                                                                             __isoc99_scanf:001011f4(c), 
                                                                                                                                                             00103fd0(*)  
            00107088                             ??                 ??
            00107089                             ??                 ??
             0010708a                             ??                 ??
            0010708b                             ??                 ??
             0010708c                             ??                 ??
            0010708d                             ??                 ??
             0010708e                             ??                 ??
             0010708f                             ??                 ??
                                                  *************************************************************************
                                                  *                         THUNK FUNCTION                          *
                                                  *************************************************************************
                                                  thunk undefined __cxa_finalize()
                                                       Thunked-Function: <EXTERNAL>::__cxa_final
                       undefined                 <UNASSIGN     <RETURN>
                                                  __cxa_finalize@@GLIBC_2.2.5
                                                  <EXTERNAL>::__cxa_finalize                                       XREF[2]:        FUN_00101110:00101114(c), 
                                                                                                                                                             00103ff8(*)  
            00107090                             ??                 ??
            00107091                             ??                 ??
            00107092                             ??                 ??
            00107093                             ??                 ??
            00107094                             ??                 ??
            00107095                             ??                 ??
            00107096                             ??                 ??
            00107097                             ??                 ??
                                                  //
                                                  // .comment 
                                                  // SHT_PROGBITS [not-loaded]
                                                  // .comment::00000000-.comment::0000002a
                                                  //
                       assume DF = <UNKNOWN>
                                                  ElfComment[0]                                                             XREF[1]:        _elfSectionHeaders::000006d0(*)  
         t::00000000  47 43 43 3a         utf8              u8"GCC: (Ubuntu 9.4.0-1ubuntu1~20.04.1) 9.4.0"
                              20 28 55 62 
                              75 6e 74 7
                                                  //
                                                  // .shstrtab 
                                                  // SHT_STRTAB [not-loaded]
                                                  // .shstrtab::00000000-.shstrtab::00000119
                                                  //
                                                  DAT_.shstrtab__00000000                                            XREF[1]:        _elfSectionHeaders::00000790(*)  
        b::00000000  00                        ??                 00h
        b::00000001  2e 73 79 6d         utf8              u8".symtab"
                              74 61 62 00
        b::00000009  2e 73 74 72         utf8              u8".strtab"
                              74 61 62 00
        b::00000011  2e 73 68 73         utf8              u8".shstrtab"
                              74 72 74 61 
                              62 00
        b::0000001b  2e 69 6e 74         utf8              u8".interp"
                              65 72 70 00
        b::00000023  2e 6e 6f 74          utf8              u8".note.gnu.property"
                              65 2e 67 6e 
                              75 2e 70 7
        b::00000036  2e 6e 6f 74          utf8              u8".note.gnu.build-id"
                              65 2e 67 6e 
                              75 2e 62 7
        b::00000049  2e 6e 6f 74          utf8              u8".note.ABI-tag"
                              65 2e 41 42 
                              49 2d 74 6
        b::00000057  2e 67 6e 75         utf8              u8".gnu.hash"
                              2e 68 61 73 
                              68 00
        b::00000061  2e 64 79 6e         utf8              u8".dynsym"
                              73 79 6d 00
        b::00000069  2e 64 79 6e         utf8              u8".dynstr"
                              73 74 72 00
        b::00000071  2e 67 6e 75         utf8              u8".gnu.version"
                              2e 76 65 72 
                              73 69 6f 6
         b::0000007e  2e 67 6e 75         utf8              u8".gnu.version_r"
                              2e 76 65 72 
                              73 69 6f 6
        b::0000008d  2e 72 65 6c         utf8              u8".rela.dyn"
                              61 2e 64 79 
                              6e 00
        b::00000097  2e 72 65 6c         utf8              u8".rela.plt"
                              61 2e 70 6c 
                              74 00
         b::000000a1  2e 69 6e 69         utf8              u8".init"
                              74 00
         b::000000a7  2e 70 6c 74         utf8              u8".plt.got"
                              2e 67 6f 74 
                              00
        b::000000b0  2e 70 6c 74         utf8              u8".plt.sec"
                              2e 73 65 63 
                              00
        b::000000b9  2e 74 65 78         utf8              u8".text"
                              74 00
         b::000000bf  2e 66 69 6e         utf8              u8".fini"
                              69 00
         b::000000c5  2e 72 6f 64          utf8              u8".rodata"
                              61 74 61 00
         b::000000cd  2e 65 68 5f          utf8              u8".eh_frame_hdr"
                              66 72 61 6d 
                              65 5f 68 6
        b::000000db  2e 65 68 5f          utf8              u8".eh_frame"
                              66 72 61 6d 
                              65 00
         b::000000e5  2e 69 6e 69         utf8              u8".init_array"
                              74 5f 61 72 
                              72 61 79 00
         b::000000f1  2e 66 69 6e         utf8              u8".fini_array"
                              69 5f 61 72 
                              72 61 79 00
         b::000000fd  2e 64 79 6e         utf8              u8".dynamic"
                              61 6d 69 63 
                              00
        b::00000106  2e 64 61 74         utf8              u8".data"
                              61 00
         b::0000010c  2e 62 73 73         utf8              u8".bss"
                              00
        b::00000111  2e 63 6f 6d          utf8              u8".comment"
                              6d 65 6e 74 
                              00
                                                  //
                                                  // .strtab 
                                                  // SHT_STRTAB [not-loaded]
                                                  // .strtab::00000000-.strtab::00000380
                                                  //
                                                  DAT_.strtab__00000000                                               XREF[1]:        _elfSectionHeaders::00000750(*)  
        b::00000000  00                        ??                 00h
        b::00000001  63 72 74 73         utf8              u8"crtstuff.c"
                              74 75 66 66 
                              2e 63 00
         b::0000000c  64 65 72 65         utf8              u8"deregister_tm_clones"
                              67 69 73 74 
                              65 72 5f 7
        b::00000021  5f 5f 64 6f            utf8              u8"__do_global_dtors_aux"
                              5f 67 6c 6f 
                              62 61 6c 5
        b::00000037  63 6f 6d 70          utf8              u8"completed.8061"
                              6c 65 74 65 
                              64 2e 38 3
        b::00000046  5f 5f 64 6f            utf8              u8"__do_global_dtors_aux_fini_array_entry"
                              5f 67 6c 6f 
                              62 61 6c 5
        b::0000006d  66 72 61 6d         utf8              u8"frame_dummy"
                              65 5f 64 75 
                              6d 6d 79 00
        b::00000079  5f 5f 66 72           utf8              u8"__frame_dummy_init_array_entry"
                              61 6d 65 5f 
                              64 75 6d 6
        b::00000098  68 61 63 6b         utf8              u8"hack_app.c"
                              5f 61 70 70 
                              2e 63 00
         b::000000a3  5f 5f 67 65           utf8              u8"__get_cpuid_max"
                              74 5f 63 70 
                              75 69 64 5
        b::000000b3  5f 5f 67 65           utf8              u8"__get_cpuid"
                              74 5f 63 70 
                              75 69 64 00
         b::000000bf  5f 5f 46 52           utf8              u8"__FRAME_END__"
                              41 4d 45 5f 
                              45 4e 44 5
         b::000000cd  5f 5f 47 4e           utf8              u8"__GNU_EH_FRAME_HDR"
                              55 5f 45 48 
                              5f 46 52 4
         b::000000e0  5f 47 4c 4f           utf8              u8"_GLOBAL_OFFSET_TABLE_"
                              42 41 4c 5f 
                              4f 46 46 5
         b::000000f6  5f 5f 69 6e           utf8              u8"__init_array_end"
                              69 74 5f 61 
                              72 72 61 7
        b::00000107  5f 5f 69 6e           utf8              u8"__init_array_start"
                              69 74 5f 61 
                              72 72 61 7
         b::0000011a  5f 44 59 4e          utf8              u8"_DYNAMIC"
                              41 4d 49 43 
                              00
        b::00000123  78 61 74 74         utf8              u8"xattrValue"
                              72 56 61 6c 
                              75 65 00
         b::0000012e  5f 5f 6c 69           utf8              u8"__libc_csu_fini"
                              62 63 5f 63 
                              73 75 5f 6
         b::0000013e  73 6e 70 72         utf8              u8"snprintf@@GLIBC_2.2.5"
                              69 6e 74 66 
                              40 40 47 4
        b::00000154  5f 5f 67 6d           utf8              u8"__gmon_start__"
                              6f 6e 5f 73 
                              74 61 72 7
        b::00000163  70 75 74 73         utf8              u8"puts@@GLIBC_2.2.5"
                              40 40 47 4c 
                              49 42 43 5
        b::00000175  73 74 72 6e         utf8              u8"strncmp@@GLIBC_2.2.5"
                              63 6d 70 40 
                              40 47 4c 4
         b::0000018a  5f 5f 6c 69           utf8              u8"__libc_start_main@@GLIBC_2.2.5"
                              62 63 5f 73 
                              74 61 72 7
         b::000001a9  73 79 73 74         utf8              u8"system@@GLIBC_2.2.5"
                              65 6d 40 40 
                              47 4c 49 4
        b::000001bd  6d 64 35 64         utf8              u8"md5decode"
                              65 63 6f 64 
                              65 00
         b::000001c7  6d 64 35 64         utf8              u8"md5digest"
                              69 67 65 73 
                              74 00
        b::000001d1  5f 49 54 4d          utf8              u8"_ITM_deregisterTMCloneTable"
                              5f 64 65 72 
                              65 67 69 7
         b::000001ed  5f 49 4f 5f            utf8              u8"_IO_stdin_used"
                              73 74 64 69 
                              6e 5f 75 7
          b::000001fc  5f 49 54 4d          utf8              u8"_ITM_registerTMCloneTable"
                              5f 72 65 67 
                              69 73 74 6
        b::00000216  5f 5f 64 61           utf8              u8"__data_start"
                              74 61 5f 73 
                              74 61 72 7
        b::00000223  4d 44 35 5f          utf8              u8"MD5_Final@@OPENSSL_1_1_0"
                              46 69 6e 61 
                              6c 40 40 4
         b::0000023c  4d 44 35 5f          utf8              u8"MD5_Update@@OPENSSL_1_1_0"
                              55 70 64 61 
                              74 65 40 4
        b::00000256  5f 5f 63 78           utf8              u8"__cxa_finalize@@GLIBC_2.2.5"
                              61 5f 66 69 
                              6e 61 6c 6
        b::00000272  73 70 72 69         utf8              u8"sprintf@@GLIBC_2.2.5"
                              6e 74 66 40 
                              40 47 4c 4
        b::00000287  73 65 74 78         utf8              u8"setxattr@@GLIBC_2.3"
                              61 74 74 72 
                              40 40 47 4
        b::0000029b  5f 5f 54 4d           utf8              u8"__TMC_END__"
                              43 5f 45 4e 
                              44 5f 5f 00
         b::000002a7  5f 5f 64 73           utf8              u8"__dso_handle"
                              6f 5f 68 61 
                              6e 64 6c 6
        b::000002b4  72 65 61 64         utf8              u8"readlink@@GLIBC_2.2.5"
                              6c 69 6e 6b 
                              40 40 47 4
         b::000002ca  5f 5f 6c 69           utf8              u8"__libc_csu_init"
                              62 63 5f 63 
                              73 75 5f 6
         b::000002da  63 61 6c 63         utf8              u8"calc_md5"
                              5f 6d 64 35 
                              00
         b::000002e3  5f 5f 62 73           utf8              u8"__bss_start"
                              73 5f 73 74 
                              61 72 74 00
          b::000002ef  5f 5f 73 74           utf8              u8"__stack_chk_fail@@GLIBC_2.4"
                              61 63 6b 5f 
                              63 68 6b 5
        b::0000030b  62 69 6e 61         utf8              u8"binaryPath"
                              72 79 50 61 
                              74 68 00
        b::00000316  67 65 74 78         utf8              u8"getxattr@@GLIBC_2.3"
                              61 74 74 72 
                              40 40 47 4
         b::0000032a  4d 44 35 5f          utf8              u8"MD5_Init@@OPENSSL_1_1_0"
                              49 6e 69 74 
                              40 40 4f 5
        b::00000342  5f 5f 69 73           utf8              u8"__isoc99_scanf@@GLIBC_2.7"
                              6f 63 39 39 
                              5f 73 63 6
         b::0000035c  75 73 65 72         utf8              u8"userInput"
                              49 6e 70 75 
                              74 00
        b::00000366  50 53 4e 00         utf8              u8"PSN"
         b::0000036a  6d 64 35 68         utf8              u8"md5handler"
                              61 6e 64 6c 
                              65 72 00
        b::00000375  5f 65 64 61          utf8              u8"_edata"
                              74 61 00
         b::0000037c  6d 61 69 6e         utf8              u8"main"
                              00
                                                  //
                                                  // .symtab 
                                                  // SHT_SYMTAB [not-loaded]
                                                  // .symtab::00000000-.symtab::0000083f
                                                  //
                                                  Elf64_Sym_ARRAY_.symtab__00000000                       XREF[1]:        _elfSectionHeaders::00000710(*)  
        b::00000000  00 00 00 00         Elf64_Sy
                              00 00 00 00 
                              00 00 00 0
                                                  //
                                                  // _elfSectionHeaders 
                                                  // Elf Section Headers
                                                  // _elfSectionHeaders::00000000-_elfSectionHeaders::000007bf
                                                  //
                                                  Elf64_Shdr_ARRAY__elfSectionHeaders__00000000     XREF[1]:        00100028(*)  
         s::00000000  00 00 00 00         Elf64_Sh                                                                                           SECTION0 - SHT_NULL
                              00 00 00 00 
                              00 00 00 0

